7ffff7bd0a69
Block 1:
  0x00007ffff7bd0a69  b8 00 00 00 00       mov    $0x00000000 -> %eax 
  0x00007ffff7bd0a6e  c9                   leave  %rbp %rsp (%rbp) -> %rsp %rbp 
  0x00007ffff7bd0a6f  c3                   ret    %rsp (%rsp) -> %rsp 

7ffff7deaeed
Block 2:
  0x00007ffff7deaeed  49 8b 96 08 01 00 00 mov    0x00000108(%r14) -> %rdx 
  0x00007ffff7deaef4  48 85 d2             test   %rdx %rdx 
  0x00007ffff7deaef7  74 3a                jz     $0x00007ffff7deaf33 

550b9028
Block 3:
  0x00007ffff7deaf33  5b                   pop    %rsp (%rsp) -> %rbx %rsp 
  0x00007ffff7deaf34  5d                   pop    %rsp (%rsp) -> %rbp %rsp 
  0x00007ffff7deaf35  41 5c                pop    %rsp (%rsp) -> %r12 %rsp 
  0x00007ffff7deaf37  41 5d                pop    %rsp (%rsp) -> %r13 %rsp 
  0x00007ffff7deaf39  41 5e                pop    %rsp (%rsp) -> %r14 %rsp 
  0x00007ffff7deaf3b  c3                   ret    %rsp (%rsp) -> %rsp 

7ffff7deb03b
Block 4:
  0x00007ffff7deb03b  eb d3                jmp    $0x00007ffff7deb010 
  0x00007ffff7deb010  83 eb 01             sub    $0x00000001 %ebx -> %ebx 
  0x00007ffff7deb013  83 fb ff             cmp    %ebx $0xffffffff 
  0x00007ffff7deb016  74 28                jz     $0x00007ffff7deb040 

550b9068
Block 5:
  0x00007ffff7deb018  49 8b 96 b8 03 00 00 mov    0x000003b8(%r14) -> %rdx 
  0x00007ffff7deb01f  89 d8                mov    %ebx -> %eax 
  0x00007ffff7deb021  48 8b 3c c2          mov    (%rdx,%rax,8) -> %rdi 
  0x00007ffff7deb025  f6 87 14 03 00 00 08 test   0x00000314(%rdi) $0x08 
  0x00007ffff7deb02c  75 e2                jnz    $0x00007ffff7deb010 

550b9084
Block 6:
  0x00007ffff7deb02e  4c 89 e9             mov    %r13 -> %rcx 
  0x00007ffff7deb031  4c 89 e2             mov    %r12 -> %rdx 
  0x00007ffff7deb034  89 ee                mov    %ebp -> %esi 
  0x00007ffff7deb036  e8 55 fe ff ff       call   $0x00007ffff7deae90 %rsp -> %rsp 0xfffffff8(%rsp) 
  0x00007ffff7deae90  41 56                push   %r14 %rsp -> %rsp 0xfffffff8(%rsp) 
  0x00007ffff7deae92  41 55                push   %r13 %rsp -> %rsp 0xfffffff8(%rsp) 
  0x00007ffff7deae94  41 54                push   %r12 %rsp -> %rsp 0xfffffff8(%rsp) 
  0x00007ffff7deae96  55                   push   %rbp %rsp -> %rsp 0xfffffff8(%rsp) 
  0x00007ffff7deae97  53                   push   %rbx %rsp -> %rsp 0xfffffff8(%rsp) 
  0x00007ffff7deae98  0f b6 87 14 03 00 00 movzx  0x00000314(%rdi) -> %eax 
  0x00007ffff7deae9f  4c 8b 47 08          mov    0x08(%rdi) -> %r8 
  0x00007ffff7deaea3  83 c8 08             or     $0x00000008 %eax -> %eax 
  0x00007ffff7deaea6  88 87 14 03 00 00    mov    %al -> 0x00000314(%rdi) 
  0x00007ffff7deaeac  45 0f b6 08          movzx  (%r8) -> %r9d 
  0x00007ffff7deaeb0  45 84 c9             test   %r9l %r9l 
  0x00007ffff7deaeb3  0f 84 cf 00 00 00    jz     $0x00007ffff7deaf88 

550b90ac
Block 7:
  0x00007ffff7deaf88  a8 03                test   %al $0x03 
  0x00007ffff7deaf8a  0f 85 29 ff ff ff    jnz    $0x00007ffff7deaeb9 

550b90f8
Block 8:
  0x00007ffff7deaf90  eb a1                jmp    $0x00007ffff7deaf33 
  0x00007ffff7deaf33  5b                   pop    %rsp (%rsp) -> %rbx %rsp 
  0x00007ffff7deaf34  5d                   pop    %rsp (%rsp) -> %rbp %rsp 
  0x00007ffff7deaf35  41 5c                pop    %rsp (%rsp) -> %r12 %rsp 
  0x00007ffff7deaf37  41 5d                pop    %rsp (%rsp) -> %r13 %rsp 
  0x00007ffff7deaf39  41 5e                pop    %rsp (%rsp) -> %r14 %rsp 
  0x00007ffff7deaf3b  c3                   ret    %rsp (%rsp) -> %rsp 

7ffff7deb03b
550b9068
Block 9:
  0x00007ffff7deb040  c7 05 56 2f 21 00 00 mov    $0x00000000 -> <rel> 0x00007ffff7ffdfa0 
                      00 00 00
  0x00007ffff7deb04a  48 83 c4 08          add    $0x0000000000000008 %rsp -> %rsp 
  0x00007ffff7deb04e  5b                   pop    %rsp (%rsp) -> %rbx %rsp 
  0x00007ffff7deb04f  5d                   pop    %rsp (%rsp) -> %rbp %rsp 
  0x00007ffff7deb050  41 5c                pop    %rsp (%rsp) -> %r12 %rsp 
  0x00007ffff7deb052  41 5d                pop    %rsp (%rsp) -> %r13 %rsp 
  0x00007ffff7deb054  41 5e                pop    %rsp (%rsp) -> %r14 %rsp 
  0x00007ffff7deb056  41 5f                pop    %rsp (%rsp) -> %r15 %rsp 
  0x00007ffff7deb058  c3                   ret    %rsp (%rsp) -> %rsp 

7ffff7ddbd2a
Block 10:
  0x00007ffff7ddbd2a  48 8d 15 0f f6 00 00 lea    <rel> 0x00007ffff7deb340 -> %rdx 
  0x00007ffff7ddbd31  4c 89 ec             mov    %r13 -> %rsp 
  0x00007ffff7ddbd34  41 ff e4             jmp    %r12 

4009e0
Block 11:
  0x00000000004009e0  31 ed                xor    %ebp %ebp -> %ebp 
  0x00000000004009e2  49 89 d1             mov    %rdx -> %r9 
  0x00000000004009e5  5e                   pop    %rsp (%rsp) -> %rsi %rsp 
  0x00000000004009e6  48 89 e2             mov    %rsp -> %rdx 
  0x00000000004009e9  48 83 e4 f0          and    $0xfffffffffffffff0 %rsp -> %rsp 
  0x00000000004009ed  50                   push   %rax %rsp -> %rsp 0xfffffff8(%rsp) 
  0x00000000004009ee  54                   push   %rsp %rsp -> %rsp 0xfffffff8(%rsp) 
  0x00000000004009ef  49 c7 c0 60 62 41 00 mov    $0x00416260 -> %r8 
  0x00000000004009f6  48 c7 c1 f0 61 41 00 mov    $0x004161f0 -> %rcx 
  0x00000000004009fd  48 c7 c7 34 1d 40 00 mov    $0x00401d34 -> %rdi 
  0x0000000000400a04  e8 17 ff ff ff       call   $0x0000000000400920 %rsp -> %rsp 0xfffffff8(%rsp) 
  0x0000000000400920  ff 25 3a 87 21 00    jmp    <rel> 0x0000000000619060 

400926
Block 12:
  0x0000000000400926  68 09 00 00 00       push   $0x0000000000000009 %rsp -> %rsp 0xfffffff8(%rsp) 
  0x000000000040092b  e9 50 ff ff ff       jmp    $0x0000000000400880 
  0x0000000000400880  ff 35 82 87 21 00    push   <rel> 0x0000000000619008 %rsp -> %rsp 0xfffffff8(%rsp) 
  0x0000000000400886  ff 25 84 87 21 00    jmp    <rel> 0x0000000000619010 

7ffff7df12e0
Block 13:
  0x00007ffff7df12e0  48 83 ec 78          sub    $0x0000000000000078 %rsp -> %rsp 
  0x00007ffff7df12e4  48 89 44 24 40       mov    %rax -> 0x40(%rsp) 
  0x00007ffff7df12e9  48 89 4c 24 48       mov    %rcx -> 0x48(%rsp) 
  0x00007ffff7df12ee  48 89 54 24 50       mov    %rdx -> 0x50(%rsp) 
  0x00007ffff7df12f3  48 89 74 24 58       mov    %rsi -> 0x58(%rsp) 
  0x00007ffff7df12f8  48 89 7c 24 60       mov    %rdi -> 0x60(%rsp) 
  0x00007ffff7df12fd  4c 89 44 24 68       mov    %r8 -> 0x68(%rsp) 
  0x00007ffff7df1302  4c 89 4c 24 70       mov    %r9 -> 0x70(%rsp) 
  0x00007ffff7df1307  66 0f 1b 04 24       data16 nop    (%rsp) 
  0x00007ffff7df130c  66 0f 1b 4c 24 10    data16 nop    0x10(%rsp) 
  0x00007ffff7df1312  66 0f 1b 54 24 20    data16 nop    0x20(%rsp) 
  0x00007ffff7df1318  66 0f 1b 5c 24 30    data16 nop    0x30(%rsp) 
  0x00007ffff7df131e  48 8b b4 24 80 00 00 mov    0x00000080(%rsp) -> %rsi 
                      00
  0x00007ffff7df1326  48 8b 7c 24 78       mov    0x78(%rsp) -> %rdi 
  0x00007ffff7df132b  e8 60 8f ff ff       call   $0x00007ffff7dea290 %rsp -> %rsp 0xfffffff8(%rsp) 
  0x00007ffff7dea290  41 54                push   %r12 %rsp -> %rsp 0xfffffff8(%rsp) 
  0x00007ffff7dea292  55                   push   %rbp %rsp -> %rsp 0xfffffff8(%rsp) 
  0x00007ffff7dea293  49 89 fa             mov    %rdi -> %r10 
  0x00007ffff7dea296  53                   push   %rbx %rsp -> %rsp 0xfffffff8(%rsp) 
  0x00007ffff7dea297  89 f6                mov    %esi -> %esi 
  0x00007ffff7dea299  48 8d 14 76          lea    (%rsi,%rsi,2) -> %rdx 
  0x00007ffff7dea29d  48 83 ec 10          sub    $0x0000000000000010 %rsp -> %rsp 
  0x00007ffff7dea2a1  48 8b 47 68          mov    0x68(%rdi) -> %rax 
  0x00007ffff7dea2a5  48 8b 78 08          mov    0x08(%rax) -> %rdi 
  0x00007ffff7dea2a9  49 8b 82 f8 00 00 00 mov    0x000000f8(%r10) -> %rax 
  0x00007ffff7dea2b0  48 8b 40 08          mov    0x08(%rax) -> %rax 
  0x00007ffff7dea2b4  48 8d 0c d0          lea    (%rax,%rdx,8) -> %rcx 
  0x00007ffff7dea2b8  49 8b 42 70          mov    0x70(%r10) -> %rax 
  0x00007ffff7dea2bc  8b 51 0c             mov    0x0c(%rcx) -> %edx 
  0x00007ffff7dea2bf  48 8b 40 08          mov    0x08(%rax) -> %rax 
  0x00007ffff7dea2c3  48 8d 34 52          lea    (%rdx,%rdx,2) -> %rsi 
  0x00007ffff7dea2c7  48 8d 34 f0          lea    (%rax,%rsi,8) -> %rsi 
  0x00007ffff7dea2cb  49 8b 02             mov    (%r10) -> %rax 
  0x00007ffff7dea2ce  48 89 74 24 08       mov    %rsi -> 0x08(%rsp) 
  0x00007ffff7dea2d3  48 89 c3             mov    %rax -> %rbx 
  0x00007ffff7dea2d6  48 03 19             add    (%rcx) %rbx -> %rbx 
  0x00007ffff7dea2d9  f6 46 05 03          test   0x05(%rsi) $0x03 
  0x00007ffff7dea2dd  0f 85 c5 00 00 00    jnz    $0x00007ffff7dea3a8 

550b9219
Block 14:
  0x00007ffff7dea2e3  49 8b 82 c8 01 00 00 mov    0x000001c8(%r10) -> %rax 
  0x00007ffff7dea2ea  48 85 c0             test   %rax %rax 
  0x00007ffff7dea2ed  0f 84 ed 00 00 00    jz     $0x00007ffff7dea3e0 

550b92d4
Block 15:
  0x00007ffff7dea2f3  48 8b 40 08          mov    0x08(%rax) -> %rax 
  0x00007ffff7dea2f7  0f b7 04 50          movzx  (%rax,%rdx,2) -> %eax 
  0x00007ffff7dea2fb  25 ff 7f 00 00       and    $0x00007fff %eax -> %eax 
  0x00007ffff7dea300  48 8d 14 40          lea    (%rax,%rax,2) -> %rdx 
  0x00007ffff7dea304  49 8b 82 e0 02 00 00 mov    0x000002e0(%r10) -> %rax 
  0x00007ffff7dea30b  4c 8d 04 d0          lea    (%rax,%rdx,8) -> %r8 
  0x00007ffff7dea30f  b8 00 00 00 00       mov    $0x00000000 -> %eax 
  0x00007ffff7dea314  45 8b 48 08          mov    0x08(%r8) -> %r9d 
  0x00007ffff7dea318  45 85 c9             test   %r9d %r9d 
  0x00007ffff7dea31b  4c 0f 44 c0          cmovz  %rax %r8 -> %r8 
  0x00007ffff7dea31f  64 8b 04 25 18 00 00 mov    %fs:0x18 -> %eax 
                      00
  0x00007ffff7dea327  85 c0                test   %eax %eax 
  0x00007ffff7dea329  41 b9 01 00 00 00    mov    $0x00000001 -> %r9d 
  0x00007ffff7dea32f  0f 85 cb 00 00 00    jnz    $0x00007ffff7dea400 

550b92f4
Block 16:
  0x00007ffff7dea335  64 8b 2c 25 4c 00 00 mov    %fs:0x4c -> %ebp 
                      00
  0x00007ffff7dea33d  64 c7 04 25 4c 00 00 mov    $0x00000001 -> %fs:0x4c 
                      00 01 00 00 00
  0x00007ffff7dea349  8b 06                mov    (%rsi) -> %eax 
  0x00007ffff7dea34b  49 8b 8a 80 03 00 00 mov    0x00000380(%r10) -> %rcx 
  0x00007ffff7dea352  48 8d 54 24 08       lea    0x08(%rsp) -> %rdx 
  0x00007ffff7dea357  6a 00                push   $0x0000000000000000 %rsp -> %rsp 0xfffffff8(%rsp) 
  0x00007ffff7dea359  41 51                push   %r9 %rsp -> %rsp 0xfffffff8(%rsp) 
  0x00007ffff7dea35b  4c 89 d6             mov    %r10 -> %rsi 
  0x00007ffff7dea35e  41 b9 01 00 00 00    mov    $0x00000001 -> %r9d 
  0x00007ffff7dea364  48 01 c7             add    %rax %rdi -> %rdi 
  0x00007ffff7dea367  e8 54 b3 ff ff       call   $0x00007ffff7de56c0 %rsp -> %rsp 0xfffffff8(%rsp) 
  0x00007ffff7de56c0  55                   push   %rbp %rsp -> %rsp 0xfffffff8(%rsp) 
  0x00007ffff7de56c1  48 89 e5             mov    %rsp -> %rbp 
  0x00007ffff7de56c4  41 57                push   %r15 %rsp -> %rsp 0xfffffff8(%rsp) 
  0x00007ffff7de56c6  41 56                push   %r14 %rsp -> %rsp 0xfffffff8(%rsp) 
  0x00007ffff7de56c8  41 55                push   %r13 %rsp -> %rsp 0xfffffff8(%rsp) 
  0x00007ffff7de56ca  41 54                push   %r12 %rsp -> %rsp 0xfffffff8(%rsp) 
  0x00007ffff7de56cc  49 89 d4             mov    %rdx -> %r12 
  0x00007ffff7de56cf  53                   push   %rbx %rsp -> %rsp 0xfffffff8(%rsp) 
  0x00007ffff7de56d0  49 89 f5             mov    %rsi -> %r13 
  0x00007ffff7de56d3  4d 89 c7             mov    %r8 -> %r15 
  0x00007ffff7de56d6  48 81 ec c8 00 00 00 sub    $0x00000000000000c8 %rsp -> %rsp 
  0x00007ffff7de56dd  0f b6 17             movzx  (%rdi) -> %edx 
  0x00007ffff7de56e0  48 89 bd 58 ff ff ff mov    %rdi -> 0xffffff58(%rbp) 
  0x00007ffff7de56e7  48 89 8d 30 ff ff ff mov    %rcx -> 0xffffff30(%rbp) 
  0x00007ffff7de56ee  44 89 8d 44 ff ff ff mov    %r9d -> 0xffffff44(%rbp) 
  0x00007ffff7de56f5  4c 8b 75 18          mov    0x18(%rbp) -> %r14 
  0x00007ffff7de56f9  84 d2                test   %dl %dl 
  0x00007ffff7de56fb  0f 84 bb 02 00 00    jz     $0x00007ffff7de59bc 

550b9350
Block 17:
  0x00007ffff7de5701  48 89 f9             mov    %rdi -> %rcx 
  0x00007ffff7de5704  b8 05 15 00 00       mov    $0x00001505 -> %eax 
  0x00007ffff7de5709  0f 1f 80 00 00 00 00 nop    0x00000000(%rax) 
  0x00007ffff7de5710  48 89 c6             mov    %rax -> %rsi 
  0x00007ffff7de5713  48 83 c1 01          add    $0x0000000000000001 %rcx -> %rcx 
  0x00007ffff7de5717  48 c1 e6 05          shl    $0x0000000000000005 %rsi -> %rsi 
  0x00007ffff7de571b  48 01 f0             add    %rsi %rax -> %rax 
  0x00007ffff7de571e  48 01 d0             add    %rdx %rax -> %rax 
  0x00007ffff7de5721  0f b6 11             movzx  (%rcx) -> %edx 
  0x00007ffff7de5724  84 d2                test   %dl %dl 
  0x00007ffff7de5726  75 e8                jnz    $0x00007ffff7de5710 

550b9408
Block 18:
  0x00007ffff7de5710  48 89 c6             mov    %rax -> %rsi 
  0x00007ffff7de5713  48 83 c1 01          add    $0x0000000000000001 %rcx -> %rcx 
  0x00007ffff7de5717  48 c1 e6 05          shl    $0x0000000000000005 %rsi -> %rsi 
  0x00007ffff7de571b  48 01 f0             add    %rsi %rax -> %rax 
  0x00007ffff7de571e  48 01 d0             add    %rdx %rax -> %rax 
  0x00007ffff7de5721  0f b6 11             movzx  (%rcx) -> %edx 
  0x00007ffff7de5724  84 d2                test   %dl %dl 
  0x00007ffff7de5726  75 e8                jnz    $0x00007ffff7de5710 

550b9440
550b9440
550b9440
550b9440
550b9440
550b9440
550b9440
550b9440
550b9440
550b9440
550b9440
550b9440
550b9440
550b9440
550b9440
550b9440
Block 19:
  0x00007ffff7de5728  89 c0                mov    %eax -> %eax 
  0x00007ffff7de572a  48 89 85 50 ff ff ff mov    %rax -> 0xffffff50(%rbp) 
  0x00007ffff7de5731  b8 ff ff ff ff       mov    $0xffffffff -> %eax 
  0x00007ffff7de5736  48 83 05 3a 82 21 00 add    $0x0000000000000001 <rel> 0x00007ffff7ffd978 -> <rel> 0x00007ffff7ffd978 
                      01
  0x00007ffff7de573e  4d 85 f6             test   %r14 %r14 
  0x00007ffff7de5741  48 89 85 60 ff ff ff mov    %rax -> 0xffffff60(%rbp) 
  0x00007ffff7de5748  48 8b 85 30 ff ff ff mov    0xffffff30(%rbp) -> %rax 
  0x00007ffff7de574f  48 c7 85 70 ff ff ff mov    $0x00000000 -> 0xffffff70(%rbp) 
                      00 00 00 00
  0x00007ffff7de575a  48 c7 85 78 ff ff ff mov    $0x00000000 -> 0xffffff78(%rbp) 
                      00 00 00 00
  0x00007ffff7de5765  4c 8b 08             mov    (%rax) -> %r9 
  0x00007ffff7de5768  0f 85 ec 01 00 00    jnz    $0x00007ffff7de595a 

550b946c
Block 20:
  0x00007ffff7de576e  48 89 c3             mov    %rax -> %rbx 
  0x00007ffff7de5771  31 c0                xor    %eax %eax -> %eax 
  0x00007ffff7de5773  4d 85 c9             test   %r9 %r9 
  0x00007ffff7de5776  48 c7 85 28 ff ff ff mov    $0x00000000 -> 0xffffff28(%rbp) 
                      00 00 00 00
  0x00007ffff7de5781  0f 84 09 02 00 00    jz     $0x00007ffff7de5990 

550b94dc
Block 21:
  0x00007ffff7de5787  48 8d 8d 70 ff ff ff lea    0xffffff70(%rbp) -> %rcx 
  0x00007ffff7de578e  48 89 8d 38 ff ff ff mov    %rcx -> 0xffffff38(%rbp) 
  0x00007ffff7de5795  48 8d 8d 60 ff ff ff lea    0xffffff60(%rbp) -> %rcx 
  0x00007ffff7de579c  48 89 8d 48 ff ff ff mov    %rcx -> 0xffffff48(%rbp) 
  0x00007ffff7de57a3  eb 1c                jmp    $0x00007ffff7de57c1 
  0x00007ffff7de57c1  8b bd 44 ff ff ff    mov    0xffffff44(%rbp) -> %edi 
  0x00007ffff7de57c7  8b 75 10             mov    0x10(%rbp) -> %esi 
  0x00007ffff7de57ca  41 55                push   %r13 %rsp -> %rsp 0xfffffff8(%rsp) 
  0x00007ffff7de57cc  4c 8b 85 38 ff ff ff mov    0xffffff38(%rbp) -> %r8 
  0x00007ffff7de57d3  49 8b 0c 24          mov    (%r12) -> %rcx 
  0x00007ffff7de57d7  48 8b 95 48 ff ff ff mov    0xffffff48(%rbp) -> %rdx 
  0x00007ffff7de57de  57                   push   %rdi %rsp -> %rsp 0xfffffff8(%rsp) 
  0x00007ffff7de57df  48 8b bd 58 ff ff ff mov    0xffffff58(%rbp) -> %rdi 
  0x00007ffff7de57e6  41 56                push   %r14 %rsp -> %rsp 0xfffffff8(%rsp) 
  0x00007ffff7de57e8  56                   push   %rsi %rsp -> %rsp 0xfffffff8(%rsp) 
  0x00007ffff7de57e9  48 8b b5 50 ff ff ff mov    0xffffff50(%rbp) -> %rsi 
  0x00007ffff7de57f0  41 57                push   %r15 %rsp -> %rsp 0xfffffff8(%rsp) 
  0x00007ffff7de57f2  50                   push   %rax %rsp -> %rsp 0xfffffff8(%rsp) 
  0x00007ffff7de57f3  e8 48 f4 ff ff       call   $0x00007ffff7de4c40 %rsp -> %rsp 0xfffffff8(%rsp) 
  0x00007ffff7de4c40  41 57                push   %r15 %rsp -> %rsp 0xfffffff8(%rsp) 
  0x00007ffff7de4c42  41 56                push   %r14 %rsp -> %rsp 0xfffffff8(%rsp) 
  0x00007ffff7de4c44  41 55                push   %r13 %rsp -> %rsp 0xfffffff8(%rsp) 
  0x00007ffff7de4c46  41 54                push   %r12 %rsp -> %rsp 0xfffffff8(%rsp) 
  0x00007ffff7de4c48  55                   push   %rbp %rsp -> %rsp 0xfffffff8(%rsp) 
  0x00007ffff7de4c49  53                   push   %rbx %rsp -> %rsp 0xfffffff8(%rsp) 
  0x00007ffff7de4c4a  48 81 ec 88 00 00 00 sub    $0x0000000000000088 %rsp -> %rsp 
  0x00007ffff7de4c51  41 8b 41 08          mov    0x08(%r9) -> %eax 
  0x00007ffff7de4c55  48 89 3c 24          mov    %rdi -> (%rsp) 
  0x00007ffff7de4c59  48 89 54 24 48       mov    %rdx -> 0x48(%rsp) 
  0x00007ffff7de4c5e  48 89 4c 24 10       mov    %rcx -> 0x10(%rsp) 
  0x00007ffff7de4c63  4c 89 44 24 40       mov    %r8 -> 0x40(%rsp) 
  0x00007ffff7de4c68  48 8b ac 24 c0 00 00 mov    0x000000c0(%rsp) -> %rbp 
                      00
  0x00007ffff7de4c70  49 89 c2             mov    %rax -> %r10 
  0x00007ffff7de4c73  48 89 f0             mov    %rsi -> %rax 
  0x00007ffff7de4c76  44 8b bc 24 e0 00 00 mov    0x000000e0(%rsp) -> %r15d 
                      00
  0x00007ffff7de4c7e  4d 8b 29             mov    (%r9) -> %r13 
  0x00007ffff7de4c81  48 c1 e8 06          shr    $0x0000000000000006 %rax -> %rax 
  0x00007ffff7de4c85  4c 8b 9c 24 d8 00 00 mov    0x000000d8(%rsp) -> %r11 
                      00
  0x00007ffff7de4c8d  48 89 74 24 28       mov    %rsi -> 0x28(%rsp) 
  0x00007ffff7de4c92  48 89 44 24 30       mov    %rax -> 0x30(%rsp) 
  0x00007ffff7de4c97  48 8d 44 24 74       lea    0x74(%rsp) -> %rax 
  0x00007ffff7de4c9c  4d 89 d6             mov    %r10 -> %r14 
  0x00007ffff7de4c9f  41 83 e7 02          and    $0x00000002 %r15d -> %r15d 
  0x00007ffff7de4ca3  48 89 44 24 18       mov    %rax -> 0x18(%rsp) 
  0x00007ffff7de4ca8  48 8d 44 24 78       lea    0x78(%rsp) -> %rax 
  0x00007ffff7de4cad  48 89 44 24 20       mov    %rax -> 0x20(%rsp) 
  0x00007ffff7de4cb2  89 f0                mov    %esi -> %eax 
  0x00007ffff7de4cb4  83 e0 3f             and    $0x0000003f %eax -> %eax 
  0x00007ffff7de4cb7  89 44 24 38          mov    %eax -> 0x38(%rsp) 
  0x00007ffff7de4cbb  0f 1f 44 00 00       nop    0x00(%rax,%rax,1) 
  0x00007ffff7de4cc0  49 8b 44 ed 00       mov    0x00(%r13,%rbp,8) -> %rax 
  0x00007ffff7de4cc5  48 8b 58 28          mov    0x28(%rax) -> %rbx 
  0x00007ffff7de4cc9  4c 39 db             cmp    %rbx %r11 
  0x00007ffff7de4ccc  0f 84 e6 00 00 00    jz     $0x00007ffff7de4db8 

550b9504
Block 22:
  0x00007ffff7de4cd2  45 85 ff             test   %r15d %r15d 
  0x00007ffff7de4cd5  74 0d                jz     $0x00007ffff7de4ce4 

550b9600
Block 23:
  0x00007ffff7de4ce4  f6 83 15 03 00 00 20 test   0x00000315(%rbx) $0x20 
  0x00007ffff7de4ceb  0f 85 c7 00 00 00    jnz    $0x00007ffff7de4db8 

550b961c
Block 24:
  0x00007ffff7de4cf1  f6 05 48 7f 21 00 08 test   <rel> 0x00007ffff7ffcc40 $0x08 
  0x00007ffff7de4cf8  0f 85 ea 00 00 00    jnz    $0x00007ffff7de4de8 

550b9638
Block 25:
  0x00007ffff7de4cfe  8b 93 ec 02 00 00    mov    0x000002ec(%rbx) -> %edx 
  0x00007ffff7de4d04  85 d2                test   %edx %edx 
  0x00007ffff7de4d06  0f 84 ac 00 00 00    jz     $0x00007ffff7de4db8 

550b9671
Block 26:
  0x00007ffff7de4d0c  48 8b 43 70          mov    0x70(%rbx) -> %rax 
  0x00007ffff7de4d10  c7 44 24 74 00 00 00 mov    $0x00000000 -> 0x74(%rsp) 
                      00
  0x00007ffff7de4d18  48 c7 44 24 78 00 00 mov    $0x00000000 -> 0x78(%rsp) 
                      00 00
  0x00007ffff7de4d21  48 8b 40 08          mov    0x08(%rax) -> %rax 
  0x00007ffff7de4d25  48 89 c7             mov    %rax -> %rdi 
  0x00007ffff7de4d28  48 8b 43 68          mov    0x68(%rbx) -> %rax 
  0x00007ffff7de4d2c  48 8b 40 08          mov    0x08(%rax) -> %rax 
  0x00007ffff7de4d30  48 89 44 24 08       mov    %rax -> 0x08(%rsp) 
  0x00007ffff7de4d35  48 8b 83 f8 02 00 00 mov    0x000002f8(%rbx) -> %rax 
  0x00007ffff7de4d3c  48 85 c0             test   %rax %rax 
  0x00007ffff7de4d3f  0f 84 fb 00 00 00    jz     $0x00007ffff7de4e40 

550b968c
Block 27:
  0x00007ffff7de4d45  8b 4c 24 30          mov    0x30(%rsp) -> %ecx 
  0x00007ffff7de4d49  23 8b f0 02 00 00    and    0x000002f0(%rbx) %ecx -> %ecx 
  0x00007ffff7de4d4f  48 8b 74 24 28       mov    0x28(%rsp) -> %rsi 
  0x00007ffff7de4d54  48 8b 04 c8          mov    (%rax,%rcx,8) -> %rax 
  0x00007ffff7de4d58  8b 8b f4 02 00 00    mov    0x000002f4(%rbx) -> %ecx 
  0x00007ffff7de4d5e  48 d3 ee             shr    %cl %rsi -> %rsi 
  0x00007ffff7de4d61  48 89 f1             mov    %rsi -> %rcx 
  0x00007ffff7de4d64  48 89 c6             mov    %rax -> %rsi 
  0x00007ffff7de4d67  48 d3 ee             shr    %cl %rsi -> %rsi 
  0x00007ffff7de4d6a  0f b6 4c 24 38       movzx  0x38(%rsp) -> %ecx 
  0x00007ffff7de4d6f  48 d3 e8             shr    %cl %rax -> %rax 
  0x00007ffff7de4d72  48 21 f0             and    %rsi %rax -> %rax 
  0x00007ffff7de4d75  a8 01                test   %al $0x01 
  0x00007ffff7de4d77  0f 85 c3 04 00 00    jnz    $0x00007ffff7de5240 

550b96d4
Block 28:
  0x00007ffff7de4d7d  48 83 bc 24 c8 00 00 cmp    0x000000c8(%rsp) $0x0000000000000000 
                      00 00
  0x00007ffff7de4d86  74 30                jz     $0x00007ffff7de4db8 

550b971c
Block 29:
  0x00007ffff7de4d88  48 8b 84 24 c8 00 00 mov    0x000000c8(%rsp) -> %rax 
                      00
  0x00007ffff7de4d90  48 8b 78 10          mov    0x10(%rax) -> %rdi 
  0x00007ffff7de4d94  48 85 ff             test   %rdi %rdi 
  0x00007ffff7de4d97  74 1f                jz     $0x00007ffff7de4db8 

550b9738
Block 30:
  0x00007ffff7de4d99  48 89 de             mov    %rbx -> %rsi 
  0x00007ffff7de4d9c  4c 89 5c 24 08       mov    %r11 -> 0x08(%rsp) 
  0x00007ffff7de4da1  e8 4a 71 00 00       call   $0x00007ffff7debef0 %rsp -> %rsp 0xfffffff8(%rsp) 
  0x00007ffff7debef0  55                   push   %rbp %rsp -> %rsp 0xfffffff8(%rsp) 
  0x00007ffff7debef1  53                   push   %rbx %rsp -> %rsp 0xfffffff8(%rsp) 
  0x00007ffff7debef2  48 89 f3             mov    %rsi -> %rbx 
  0x00007ffff7debef5  48 89 fd             mov    %rdi -> %rbp 
  0x00007ffff7debef8  48 83 ec 08          sub    $0x0000000000000008 %rsp -> %rsp 
  0x00007ffff7debefc  48 8b 76 08          mov    0x08(%rsi) -> %rsi 
  0x00007ffff7debf00  e8 6b 8f 00 00       call   $0x00007ffff7df4e70 %rsp -> %rsp 0xfffffff8(%rsp) 
  0x00007ffff7df4e70  8a 07                mov    (%rdi) -> %al 
  0x00007ffff7df4e72  3a 06                cmp    %al (%rsi) 
  0x00007ffff7df4e74  75 0d                jnz    $0x00007ffff7df4e83 

550b975c
Block 31:
  0x00007ffff7df4e83  b8 01 00 00 00       mov    $0x00000001 -> %eax 
  0x00007ffff7df4e88  b9 ff ff ff ff       mov    $0xffffffff -> %ecx 
  0x00007ffff7df4e8d  0f 42 c1             cmovb  %ecx %eax -> %eax 
  0x00007ffff7df4e90  c3                   ret    %rsp (%rsp) -> %rsp 

7ffff7debf05
Block 32:
  0x00007ffff7debf05  85 c0                test   %eax %eax 
  0x00007ffff7debf07  ba 01 00 00 00       mov    $0x00000001 -> %edx 
  0x00007ffff7debf0c  74 2f                jz     $0x00007ffff7debf3d 

550b97cc
Block 33:
  0x00007ffff7debf0e  48 8b 5b 38          mov    0x38(%rbx) -> %rbx 
  0x00007ffff7debf12  48 85 db             test   %rbx %rbx 
  0x00007ffff7debf15  75 12                jnz    $0x00007ffff7debf29 

550b97e8
Block 34:
  0x00007ffff7debf29  48 8b 33             mov    (%rbx) -> %rsi 
  0x00007ffff7debf2c  48 89 ef             mov    %rbp -> %rdi 
  0x00007ffff7debf2f  e8 3c 8f 00 00       call   $0x00007ffff7df4e70 %rsp -> %rsp 0xfffffff8(%rsp) 
  0x00007ffff7df4e70  8a 07                mov    (%rdi) -> %al 
  0x00007ffff7df4e72  3a 06                cmp    %al (%rsi) 
  0x00007ffff7df4e74  75 0d                jnz    $0x00007ffff7df4e83 

550b9804
7ffff7debf34
Block 35:
  0x00007ffff7debf34  85 c0                test   %eax %eax 
  0x00007ffff7debf36  75 e8                jnz    $0x00007ffff7debf20 

550b9830
Block 36:
  0x00007ffff7debf20  48 8b 5b 08          mov    0x08(%rbx) -> %rbx 
  0x00007ffff7debf24  48 85 db             test   %rbx %rbx 
  0x00007ffff7debf27  74 27                jz     $0x00007ffff7debf50 

550b984c
Block 37:
  0x00007ffff7debf50  48 83 c4 08          add    $0x0000000000000008 %rsp -> %rsp 
  0x00007ffff7debf54  31 d2                xor    %edx %edx -> %edx 
  0x00007ffff7debf56  89 d0                mov    %edx -> %eax 
  0x00007ffff7debf58  5b                   pop    %rsp (%rsp) -> %rbx %rsp 
  0x00007ffff7debf59  5d                   pop    %rsp (%rsp) -> %rbp %rsp 
  0x00007ffff7debf5a  c3                   ret    %rsp (%rsp) -> %rsp 

7ffff7de4da6
Block 38:
  0x00007ffff7de4da6  85 c0                test   %eax %eax 
  0x00007ffff7de4da8  4c 8b 5c 24 08       mov    0x08(%rsp) -> %r11 
  0x00007ffff7de4dad  0f 85 3f 07 00 00    jnz    $0x00007ffff7de54f2 

550b988c
Block 39:
  0x00007ffff7de4db3  0f 1f 44 00 00       nop    0x00(%rax,%rax,1) 
  0x00007ffff7de4db8  48 83 c5 01          add    $0x0000000000000001 %rbp -> %rbp 
  0x00007ffff7de4dbc  49 39 ee             cmp    %r14 %rbp 
  0x00007ffff7de4dbf  0f 87 fb fe ff ff    jnbe   $0x00007ffff7de4cc0 

550b98a8
Block 40:
  0x00007ffff7de4cc0  49 8b 44 ed 00       mov    0x00(%r13,%rbp,8) -> %rax 
  0x00007ffff7de4cc5  48 8b 58 28          mov    0x28(%rax) -> %rbx 
  0x00007ffff7de4cc9  4c 39 db             cmp    %rbx %r11 
  0x00007ffff7de4ccc  0f 84 e6 00 00 00    jz     $0x00007ffff7de4db8 

550b98c8
550b9600
550b961c
550b9638
550b9671
550b968c
550b96d4
550b971c
550b9738
550b975c
7ffff7debf05
550b97cc
550b97e8
550b9804
7ffff7debf34
550b9830
550b984c
7ffff7de4da6
550b988c
550b98a8
550b98c8
550b9600
550b961c
550b9638
550b9671
550b968c
550b96d4
550b971c
550b9738
550b975c
7ffff7debf05
550b97cc
550b97e8
550b9804
7ffff7debf34
550b9830
550b984c
7ffff7de4da6
550b988c
550b98a8
550b98c8
550b9600
550b961c
550b9638
550b9671
550b968c
550b96d4
550b971c
550b9738
550b975c
7ffff7debf05
550b97cc
550b97e8
550b9804
7ffff7debf34
550b9830
550b984c
7ffff7de4da6
550b988c
550b98a8
550b98c8
550b9600
550b961c
550b9638
550b9671
550b968c
550b96d4
Block 41:
  0x00007ffff7de5240  48 8b 44 24 28       mov    0x28(%rsp) -> %rax 
  0x00007ffff7de5245  89 d1                mov    %edx -> %ecx 
  0x00007ffff7de5247  31 d2                xor    %edx %edx -> %edx 
  0x00007ffff7de5249  48 f7 f1             div    %rcx %rdx %rax -> %rdx %rax 
  0x00007ffff7de524c  48 8b 83 00 03 00 00 mov    0x00000300(%rbx) -> %rax 
  0x00007ffff7de5253  8b 04 90             mov    (%rax,%rdx,4) -> %eax 
  0x00007ffff7de5256  85 c0                test   %eax %eax 
  0x00007ffff7de5258  0f 84 1f fb ff ff    jz     $0x00007ffff7de4d7d 

550b98e8
Block 42:
  0x00007ffff7de525e  48 8b 93 08 03 00 00 mov    0x00000308(%rbx) -> %rdx 
  0x00007ffff7de5265  48 8d b3 e0 02 00 00 lea    0x000002e0(%rbx) -> %rsi 
  0x00007ffff7de526c  4c 89 6c 24 58       mov    %r13 -> 0x58(%rsp) 
  0x00007ffff7de5271  44 89 7c 24 60       mov    %r15d -> 0x60(%rsp) 
  0x00007ffff7de5276  48 89 ac 24 c0 00 00 mov    %rbp -> 0x000000c0(%rsp) 
                      00
  0x00007ffff7de527e  49 89 fd             mov    %rdi -> %r13 
  0x00007ffff7de5281  4c 89 74 24 68       mov    %r14 -> 0x68(%rsp) 
  0x00007ffff7de5286  48 89 74 24 50       mov    %rsi -> 0x50(%rsp) 
  0x00007ffff7de528b  4c 8d 24 82          lea    (%rdx,%rax,4) -> %r12 
  0x00007ffff7de528f  48 8d 83 30 03 00 00 lea    0x00000330(%rbx) -> %rax 
  0x00007ffff7de5296  4c 8b 7c 24 28       mov    0x28(%rsp) -> %r15 
  0x00007ffff7de529b  4c 89 9c 24 d8 00 00 mov    %r11 -> 0x000000d8(%rsp) 
                      00
  0x00007ffff7de52a3  4c 89 e5             mov    %r12 -> %rbp 
  0x00007ffff7de52a6  49 89 c6             mov    %rax -> %r14 
  0x00007ffff7de52a9  eb 11                jmp    $0x00007ffff7de52bc 
  0x00007ffff7de52bc  8b 55 00             mov    0x00(%rbp) -> %edx 
  0x00007ffff7de52bf  48 89 d0             mov    %rdx -> %rax 
  0x00007ffff7de52c2  4c 31 fa             xor    %r15 %rdx -> %rdx 
  0x00007ffff7de52c5  48 d1 ea             shr    $0x0000000000000001 %rdx -> %rdx 
  0x00007ffff7de52c8  75 e6                jnz    $0x00007ffff7de52b0 

550b9914
Block 43:
  0x00007ffff7de52ca  48 89 e8             mov    %rbp -> %rax 
  0x00007ffff7de52cd  48 2b 83 08 03 00 00 sub    0x00000308(%rbx) %rax -> %rax 
  0x00007ffff7de52d4  ff 74 24 18          push   0x18(%rsp) %rsp -> %rsp 0xfffffff8(%rsp) 
  0x00007ffff7de52d8  ff 74 24 28          push   0x28(%rsp) %rsp -> %rsp 0xfffffff8(%rsp) 
  0x00007ffff7de52dc  41 56                push   %r14 %rsp -> %rsp 0xfffffff8(%rsp) 
  0x00007ffff7de52de  ff 74 24 68          push   0x68(%rsp) %rsp -> %rsp 0xfffffff8(%rsp) 
  0x00007ffff7de52e2  ff 74 24 28          push   0x28(%rsp) %rsp -> %rsp 0xfffffff8(%rsp) 
  0x00007ffff7de52e6  48 c1 f8 02          sar    $0x0000000000000002 %rax -> %rax 
  0x00007ffff7de52ea  89 c2                mov    %eax -> %edx 
  0x00007ffff7de52ec  50                   push   %rax %rsp -> %rsp 0xfffffff8(%rsp) 
  0x00007ffff7de52ed  44 8b 84 24 10 01 00 mov    0x00000110(%rsp) -> %r8d 
                      00
  0x00007ffff7de52f5  48 8d 14 52          lea    (%rdx,%rdx,2) -> %rdx 
  0x00007ffff7de52f9  8b 8c 24 00 01 00 00 mov    0x00000100(%rsp) -> %ecx 
  0x00007ffff7de5300  48 8b 74 24 40       mov    0x40(%rsp) -> %rsi 
  0x00007ffff7de5305  48 8b 7c 24 30       mov    0x30(%rsp) -> %rdi 
  0x00007ffff7de530a  41 89 c4             mov    %eax -> %r12d 
  0x00007ffff7de530d  4d 8d 4c d5 00       lea    0x00(%r13,%rdx,8) -> %r9 
  0x00007ffff7de5312  48 8b 94 24 f8 00 00 mov    0x000000f8(%rsp) -> %rdx 
                      00
  0x00007ffff7de531a  e8 c1 f7 ff ff       call   $0x00007ffff7de4ae0 %rsp -> %rsp 0xfffffff8(%rsp) 
  0x00007ffff7de4ae0  41 0f b6 41 04       movzx  0x04(%r9) -> %eax 
  0x00007ffff7de4ae5  83 e0 0f             and    $0x0000000f %eax -> %eax 
  0x00007ffff7de4ae8  3c 06                cmp    %al $0x06 
  0x00007ffff7de4aea  74 0b                jz     $0x00007ffff7de4af7 

550b9980
Block 44:
  0x00007ffff7de4aec  49 83 79 08 00       cmp    0x08(%r9) $0x0000000000000000 
  0x00007ffff7de4af1  0f 84 c9 00 00 00    jz     $0x00007ffff7de4bc0 

550b99fc
Block 45:
  0x00007ffff7de4af7  45 31 d2             xor    %r10d %r10d -> %r10d 
  0x00007ffff7de4afa  66 41 83 79 06 00    data16 cmp    0x06(%r9) $0x0000 
  0x00007ffff7de4b00  41 0f 94 c2          setz   -> %r10l 
  0x00007ffff7de4b04  45 85 d0             test   %r8d %r10d 
  0x00007ffff7de4b07  0f 85 b3 00 00 00    jnz    $0x00007ffff7de4bc0 

550b9a18
Block 46:
  0x00007ffff7de4b0d  41 b8 67 04 00 00    mov    $0x00000467 -> %r8d 
  0x00007ffff7de4b13  41 0f a3 c0          bt     %r8d %eax 
  0x00007ffff7de4b17  0f 83 a3 00 00 00    jnb    $0x00007ffff7de4bc0 

550b9a3c
Block 47:
  0x00007ffff7de4b1d  41 55                push   %r13 %rsp -> %rsp 0xfffffff8(%rsp) 
  0x00007ffff7de4b1f  41 54                push   %r12 %rsp -> %rsp 0xfffffff8(%rsp) 
  0x00007ffff7de4b21  48 89 f0             mov    %rsi -> %rax 
  0x00007ffff7de4b24  55                   push   %rbp %rsp -> %rsp 0xfffffff8(%rsp) 
  0x00007ffff7de4b25  53                   push   %rbx %rsp -> %rsp 0xfffffff8(%rsp) 
  0x00007ffff7de4b26  41 89 cc             mov    %ecx -> %r12d 
  0x00007ffff7de4b29  4c 89 cb             mov    %r9 -> %rbx 
  0x00007ffff7de4b2c  48 89 d5             mov    %rdx -> %rbp 
  0x00007ffff7de4b2f  48 89 fe             mov    %rdi -> %rsi 
  0x00007ffff7de4b32  48 83 ec 08          sub    $0x0000000000000008 %rsp -> %rsp 
  0x00007ffff7de4b36  49 39 c1             cmp    %r9 %rax 
  0x00007ffff7de4b39  74 18                jz     $0x00007ffff7de4b53 

550b9a5d
Block 48:
  0x00007ffff7de4b3b  41 8b 01             mov    (%r9) -> %eax 
  0x00007ffff7de4b3e  48 03 44 24 38       add    0x38(%rsp) %rax -> %rax 
  0x00007ffff7de4b43  48 89 c7             mov    %rax -> %rdi 
  0x00007ffff7de4b46  e8 25 03 01 00       call   $0x00007ffff7df4e70 %rsp -> %rsp 0xfffffff8(%rsp) 
  0x00007ffff7df4e70  8a 07                mov    (%rdi) -> %al 
  0x00007ffff7df4e72  3a 06                cmp    %al (%rsi) 
  0x00007ffff7df4e74  75 0d                jnz    $0x00007ffff7df4e83 

550b9a8c
Block 49:
  0x00007ffff7df4e76  48 ff c7             inc    %rdi -> %rdi 
  0x00007ffff7df4e79  48 ff c6             inc    %rsi -> %rsi 
  0x00007ffff7df4e7c  84 c0                test   %al %al 
  0x00007ffff7df4e7e  75 f0                jnz    $0x00007ffff7df4e70 

550b9abc
Block 50:
  0x00007ffff7df4e70  8a 07                mov    (%rdi) -> %al 
  0x00007ffff7df4e72  3a 06                cmp    %al (%rsi) 
  0x00007ffff7df4e74  75 0d                jnz    $0x00007ffff7df4e83 

550b9ad8
550b9abc
550b9ad8
550b9abc
550b9ad8
550b9abc
550b9ad8
550b9abc
550b9ad8
550b9abc
550b9ad8
550b9abc
550b9ad8
550b9abc
550b9ad8
550b9abc
550b9ad8
550b9abc
550b9ad8
550b9abc
550b9ad8
550b9abc
550b9ad8
550b9abc
550b9ad8
550b9abc
550b9ad8
550b9abc
550b9ad8
550b9abc
550b9ad8
550b9abc
550b9ad8
550b9abc
Block 51:
  0x00007ffff7df4e80  31 c0                xor    %eax %eax -> %eax 
  0x00007ffff7df4e82  c3                   ret    %rsp (%rsp) -> %rsp 

7ffff7de4b4b
Block 52:
  0x00007ffff7de4b4b  85 c0                test   %eax %eax 
  0x00007ffff7de4b4d  0f 85 d5 00 00 00    jnz    $0x00007ffff7de4c28 

550b9b10
Block 53:
  0x00007ffff7de4b53  48 8b 44 24 48       mov    0x48(%rsp) -> %rax 
  0x00007ffff7de4b58  48 85 ed             test   %rbp %rbp 
  0x00007ffff7de4b5b  48 8b 00             mov    (%rax) -> %rax 
  0x00007ffff7de4b5e  0f 84 7c 00 00 00    jz     $0x00007ffff7de4be0 

550b9b2e
Block 54:
  0x00007ffff7de4b64  48 85 c0             test   %rax %rax 
  0x00007ffff7de4b67  74 45                jz     $0x00007ffff7de4bae 

550b9b4c
Block 55:
  0x00007ffff7de4b69  8b 54 24 30          mov    0x30(%rsp) -> %edx 
  0x00007ffff7de4b6d  44 0f b7 2c 50       movzx  (%rax,%rdx,2) -> %r13d 
  0x00007ffff7de4b72  4c 89 e8             mov    %r13 -> %rax 
  0x00007ffff7de4b75  25 ff 7f 00 00       and    $0x00007fff %eax -> %eax 
  0x00007ffff7de4b7a  48 8d 14 40          lea    (%rax,%rax,2) -> %rdx 
  0x00007ffff7de4b7e  48 8b 44 24 40       mov    0x40(%rsp) -> %rax 
  0x00007ffff7de4b83  48 8b 00             mov    (%rax) -> %rax 
  0x00007ffff7de4b86  48 8d 04 d0          lea    (%rax,%rdx,8) -> %rax 
  0x00007ffff7de4b8a  44 8b 60 08          mov    0x08(%rax) -> %r12d 
  0x00007ffff7de4b8e  44 3b 65 08          cmp    %r12d 0x08(%rbp) 
  0x00007ffff7de4b92  74 34                jz     $0x00007ffff7de4bc8 

550b9b68
Block 56:
  0x00007ffff7de4bc8  48 8b 75 00          mov    0x00(%rbp) -> %rsi 
  0x00007ffff7de4bcc  48 8b 38             mov    (%rax) -> %rdi 
  0x00007ffff7de4bcf  e8 9c 02 01 00       call   $0x00007ffff7df4e70 %rsp -> %rsp 0xfffffff8(%rsp) 
  0x00007ffff7df4e70  8a 07                mov    (%rdi) -> %al 
  0x00007ffff7df4e72  3a 06                cmp    %al (%rsi) 
  0x00007ffff7df4e74  75 0d                jnz    $0x00007ffff7df4e83 

550b9ba6
550b9abc
550b9ad8
550b9abc
550b9ad8
550b9abc
550b9ad8
550b9abc
550b9ad8
550b9abc
550b9ad8
550b9abc
550b9ad8
550b9abc
550b9ad8
550b9abc
550b9ad8
550b9abc
550b9ad8
550b9abc
550b9ad8
550b9abc
550b9ad8
550b9abc
7ffff7de4bd4
Block 57:
  0x00007ffff7de4bd4  89 c2                mov    %eax -> %edx 
  0x00007ffff7de4bd6  48 89 d8             mov    %rbx -> %rax 
  0x00007ffff7de4bd9  85 d2                test   %edx %edx 
  0x00007ffff7de4bdb  74 d4                jz     $0x00007ffff7de4bb1 

550b9bd4
Block 58:
  0x00007ffff7de4bb1  48 83 c4 08          add    $0x0000000000000008 %rsp -> %rsp 
  0x00007ffff7de4bb5  5b                   pop    %rsp (%rsp) -> %rbx %rsp 
  0x00007ffff7de4bb6  5d                   pop    %rsp (%rsp) -> %rbp %rsp 
  0x00007ffff7de4bb7  41 5c                pop    %rsp (%rsp) -> %r12 %rsp 
  0x00007ffff7de4bb9  41 5d                pop    %rsp (%rsp) -> %r13 %rsp 
  0x00007ffff7de4bbb  c3                   ret    %rsp (%rsp) -> %rsp 

7ffff7de531f
Block 59:
  0x00007ffff7de531f  48 83 c4 30          add    $0x0000000000000030 %rsp -> %rsp 
  0x00007ffff7de5323  48 85 c0             test   %rax %rax 
  0x00007ffff7de5326  0f 85 2c 03 00 00    jnz    $0x00007ffff7de5658 

550b9c14
Block 60:
  0x00007ffff7de5658  4c 8b 6c 24 58       mov    0x58(%rsp) -> %r13 
  0x00007ffff7de565d  44 8b 7c 24 60       mov    0x60(%rsp) -> %r15d 
  0x00007ffff7de5662  45 89 e2             mov    %r12d -> %r10d 
  0x00007ffff7de5665  48 8b ac 24 c0 00 00 mov    0x000000c0(%rsp) -> %rbp 
                      00
  0x00007ffff7de566d  4c 8b 9c 24 d8 00 00 mov    0x000000d8(%rsp) -> %r11 
                      00
  0x00007ffff7de5675  4c 8b 74 24 68       mov    0x68(%rsp) -> %r14 
  0x00007ffff7de567a  e9 fe fc ff ff       jmp    $0x00007ffff7de537d 
  0x00007ffff7de537d  0f b6 50 04          movzx  0x04(%rax) -> %edx 
  0x00007ffff7de5381  c0 ea 04             shr    $0x04 %dl -> %dl 
  0x00007ffff7de5384  80 fa 02             cmp    %dl $0x02 
  0x00007ffff7de5387  0f 84 13 fd ff ff    jz     $0x00007ffff7de50a0 

550b9c30
Block 61:
  0x00007ffff7de538d  80 fa 0a             cmp    %dl $0x0a 
  0x00007ffff7de5390  0f 84 ca fb ff ff    jz     $0x00007ffff7de4f60 

550b9c70
Block 62:
  0x00007ffff7de5396  80 fa 01             cmp    %dl $0x01 
  0x00007ffff7de5399  0f 84 0f fd ff ff    jz     $0x00007ffff7de50ae 

550b9c8c
Block 63:
  0x00007ffff7de50ae  48 89 c7             mov    %rax -> %rdi 
  0x00007ffff7de50b1  48 89 44 24 18       mov    %rax -> 0x18(%rsp) 
  0x00007ffff7de50b6  48 8b 44 24 40       mov    0x40(%rsp) -> %rax 
  0x00007ffff7de50bb  48 89 38             mov    %rdi -> (%rax) 
  0x00007ffff7de50be  48 89 58 08          mov    %rbx -> 0x08(%rax) 
  0x00007ffff7de50c2  b8 01 00 00 00       mov    $0x00000001 -> %eax 
  0x00007ffff7de50c7  e9 04 fd ff ff       jmp    $0x00007ffff7de4dd0 
  0x00007ffff7de4dd0  48 81 c4 88 00 00 00 add    $0x0000000000000088 %rsp -> %rsp 
  0x00007ffff7de4dd7  5b                   pop    %rsp (%rsp) -> %rbx %rsp 
  0x00007ffff7de4dd8  5d                   pop    %rsp (%rsp) -> %rbp %rsp 
  0x00007ffff7de4dd9  41 5c                pop    %rsp (%rsp) -> %r12 %rsp 
  0x00007ffff7de4ddb  41 5d                pop    %rsp (%rsp) -> %r13 %rsp 
  0x00007ffff7de4ddd  41 5e                pop    %rsp (%rsp) -> %r14 %rsp 
  0x00007ffff7de4ddf  41 5f                pop    %rsp (%rsp) -> %r15 %rsp 
  0x00007ffff7de4de1  c3                   ret    %rsp (%rsp) -> %rsp 

7ffff7de57f8
Block 64:
  0x00007ffff7de57f8  48 83 c4 30          add    $0x0000000000000030 %rsp -> %rsp 
  0x00007ffff7de57fc  83 f8 00             cmp    %eax $0x00000000 
  0x00007ffff7de57ff  7e a7                jle    $0x00007ffff7de57a8 

550b9cec
Block 65:
  0x00007ffff7de5801  48 83 bd 70 ff ff ff cmp    0xffffff70(%rbp) $0x0000000000000000 
                      00
  0x00007ffff7de5809  0f 84 81 01 00 00    jz     $0x00007ffff7de5990 

550b9d08
Block 66:
  0x00007ffff7de580f  49 8b 0c 24          mov    (%r12) -> %rcx 
  0x00007ffff7de5813  48 85 c9             test   %rcx %rcx 
  0x00007ffff7de5816  74 0b                jz     $0x00007ffff7de5823 

550b9d24
Block 67:
  0x00007ffff7de5818  0f b6 41 05          movzx  0x05(%rcx) -> %eax 
  0x00007ffff7de581c  83 e0 03             and    $0x00000003 %eax -> %eax 
  0x00007ffff7de581f  3c 03                cmp    %al $0x03 
  0x00007ffff7de5821  74 5d                jz     $0x00007ffff7de5880 

550b9d40
Block 68:
  0x00007ffff7de5823  48 8b 9d 78 ff ff ff mov    0xffffff78(%rbp) -> %rbx 
  0x00007ffff7de582a  45 31 c9             xor    %r9d %r9d -> %r9d 
  0x00007ffff7de582d  0f b6 93 14 03 00 00 movzx  0x00000314(%rbx) -> %edx 
  0x00007ffff7de5834  48 89 d8             mov    %rbx -> %rax 
  0x00007ffff7de5837  83 e2 03             and    $0x00000003 %edx -> %edx 
  0x00007ffff7de583a  80 fa 02             cmp    %dl $0x02 
  0x00007ffff7de583d  0f 84 c4 02 00 00    jz     $0x00007ffff7de5b07 

550b9d5f
Block 69:
  0x00007ffff7de5843  8b b8 cc 03 00 00    mov    0x000003cc(%rax) -> %edi 
  0x00007ffff7de5849  85 ff                test   %edi %edi 
  0x00007ffff7de584b  0f 84 2b 03 00 00    jz     $0x00007ffff7de5b7c 

550b9d8c
Block 70:
  0x00007ffff7de5851  8b 15 e9 73 21 00    mov    <rel> 0x00007ffff7ffcc40 -> %edx 
  0x00007ffff7de5857  f7 c2 04 08 00 00    test   %edx $0x00000804 
  0x00007ffff7de585d  0f 85 69 01 00 00    jnz    $0x00007ffff7de59cc 

550b9da8
Block 71:
  0x00007ffff7de5863  48 8b 95 70 ff ff ff mov    0xffffff70(%rbp) -> %rdx 
  0x00007ffff7de586a  49 89 14 24          mov    %rdx -> (%r12) 
  0x00007ffff7de586e  48 8d 65 d8          lea    0xffffffd8(%rbp) -> %rsp 
  0x00007ffff7de5872  5b                   pop    %rsp (%rsp) -> %rbx %rsp 
  0x00007ffff7de5873  41 5c                pop    %rsp (%rsp) -> %r12 %rsp 
  0x00007ffff7de5875  41 5d                pop    %rsp (%rsp) -> %r13 %rsp 
  0x00007ffff7de5877  41 5e                pop    %rsp (%rsp) -> %r14 %rsp 
  0x00007ffff7de5879  41 5f                pop    %rsp (%rsp) -> %r15 %rsp 
  0x00007ffff7de587b  5d                   pop    %rsp (%rsp) -> %rbp %rsp 
  0x00007ffff7de587c  c3                   ret    %rsp (%rsp) -> %rsp 

7ffff7dea36c
Block 72:
  0x00007ffff7dea36c  49 89 c4             mov    %rax -> %r12 
  0x00007ffff7dea36f  64 8b 04 25 18 00 00 mov    %fs:0x18 -> %eax 
                      00
  0x00007ffff7dea377  85 c0                test   %eax %eax 
  0x00007ffff7dea379  59                   pop    %rsp (%rsp) -> %rcx %rsp 
  0x00007ffff7dea37a  5e                   pop    %rsp (%rsp) -> %rsi %rsp 
  0x00007ffff7dea37b  0f 85 97 00 00 00    jnz    $0x00007ffff7dea418 

550b9e00
Block 73:
  0x00007ffff7dea381  64 8b 04 25 4c 00 00 mov    %fs:0x4c -> %eax 
                      00
  0x00007ffff7dea389  85 c0                test   %eax %eax 
  0x00007ffff7dea38b  74 4b                jz     $0x00007ffff7dea3d8 

550b9e2c
Block 74:
  0x00007ffff7dea38d  64 89 2c 25 4c 00 00 mov    %ebp -> %fs:0x4c 
                      00
  0x00007ffff7dea395  48 8b 74 24 08       mov    0x08(%rsp) -> %rsi 
  0x00007ffff7dea39a  48 85 f6             test   %rsi %rsi 
  0x00007ffff7dea39d  74 51                jz     $0x00007ffff7dea3f0 

550b9e54
Block 75:
  0x00007ffff7dea39f  4d 85 e4             test   %r12 %r12 
  0x00007ffff7dea3a2  74 54                jz     $0x00007ffff7dea3f8 

550b9e98
Block 76:
  0x00007ffff7dea3a4  49 8b 04 24          mov    (%r12) -> %rax 
  0x00007ffff7dea3a8  0f b6 56 04          movzx  0x04(%rsi) -> %edx 
  0x00007ffff7dea3ac  48 03 46 08          add    0x08(%rsi) %rax -> %rax 
  0x00007ffff7dea3b0  83 e2 0f             and    $0x0000000f %edx -> %edx 
  0x00007ffff7dea3b3  80 fa 0a             cmp    %dl $0x0a 
  0x00007ffff7dea3b6  0f 84 94 00 00 00    jz     $0x00007ffff7dea450 

550b9eb4
Block 77:
  0x00007ffff7dea3bc  8b 15 c6 28 21 00    mov    <rel> 0x00007ffff7ffcc88 -> %edx 
  0x00007ffff7dea3c2  85 d2                test   %edx %edx 
  0x00007ffff7dea3c4  75 03                jnz    $0x00007ffff7dea3c9 

550b9edc
Block 78:
  0x00007ffff7dea3c6  48 89 03             mov    %rax -> (%rbx) 
  0x00007ffff7dea3c9  48 83 c4 10          add    $0x0000000000000010 %rsp -> %rsp 
  0x00007ffff7dea3cd  5b                   pop    %rsp (%rsp) -> %rbx %rsp 
  0x00007ffff7dea3ce  5d                   pop    %rsp (%rsp) -> %rbp %rsp 
  0x00007ffff7dea3cf  41 5c                pop    %rsp (%rsp) -> %r12 %rsp 
  0x00007ffff7dea3d1  c3                   ret    %rsp (%rsp) -> %rsp 

7ffff7df1330
Block 79:
  0x00007ffff7df1330  49 89 c3             mov    %rax -> %r11 
  0x00007ffff7df1333  66 0f 1a 5c 24 30    data16 nop    0x30(%rsp) 
  0x00007ffff7df1339  66 0f 1a 54 24 20    data16 nop    0x20(%rsp) 
  0x00007ffff7df133f  66 0f 1a 4c 24 10    data16 nop    0x10(%rsp) 
  0x00007ffff7df1345  66 0f 1a 04 24       data16 nop    (%rsp) 
  0x00007ffff7df134a  4c 8b 4c 24 70       mov    0x70(%rsp) -> %r9 
  0x00007ffff7df134f  4c 8b 44 24 68       mov    0x68(%rsp) -> %r8 
  0x00007ffff7df1354  48 8b 7c 24 60       mov    0x60(%rsp) -> %rdi 
  0x00007ffff7df1359  48 8b 74 24 58       mov    0x58(%rsp) -> %rsi 
  0x00007ffff7df135e  48 8b 54 24 50       mov    0x50(%rsp) -> %rdx 
  0x00007ffff7df1363  48 8b 4c 24 48       mov    0x48(%rsp) -> %rcx 
  0x00007ffff7df1368  48 8b 44 24 40       mov    0x40(%rsp) -> %rax 
  0x00007ffff7df136d  48 81 c4 88 00 00 00 add    $0x0000000000000088 %rsp -> %rsp 
  0x00007ffff7df1374  41 ff e3             jmp    %r11 

7ffff7616ef0
Block 80:
  0x00007ffff7616ef0  41 56                push   %r14 %rsp -> %rsp 0xfffffff8(%rsp) 
  0x00007ffff7616ef2  41 55                push   %r13 %rsp -> %rsp 0xfffffff8(%rsp) 
  0x00007ffff7616ef4  41 54                push   %r12 %rsp -> %rsp 0xfffffff8(%rsp) 
  0x00007ffff7616ef6  55                   push   %rbp %rsp -> %rsp 0xfffffff8(%rsp) 
  0x00007ffff7616ef7  48 89 cd             mov    %rcx -> %rbp 
  0x00007ffff7616efa  53                   push   %rbx %rsp -> %rsp 0xfffffff8(%rsp) 
  0x00007ffff7616efb  48 81 ec 90 00 00 00 sub    $0x0000000000000090 %rsp -> %rsp 
  0x00007ffff7616f02  48 8b 05 7f 6e 39 00 mov    <rel> 0x00007ffff79add88 -> %rax 
  0x00007ffff7616f09  48 89 7c 24 18       mov    %rdi -> 0x18(%rsp) 
  0x00007ffff7616f0e  89 74 24 14          mov    %esi -> 0x14(%rsp) 
  0x00007ffff7616f12  48 89 54 24 08       mov    %rdx -> 0x08(%rsp) 
  0x00007ffff7616f17  48 85 c0             test   %rax %rax 
  0x00007ffff7616f1a  0f 84 c7 00 00 00    jz     $0x00007ffff7616fe7 

550b9f84
Block 81:
  0x00007ffff7616f20  8b 00                mov    (%rax) -> %eax 
  0x00007ffff7616f22  31 d2                xor    %edx %edx -> %edx 
  0x00007ffff7616f24  85 c0                test   %eax %eax 
  0x00007ffff7616f26  0f 94 c2             setz   -> %dl 
  0x00007ffff7616f29  48 8d 05 50 71 39 00 lea    <rel> 0x00007ffff79ae080 -> %rax 
  0x00007ffff7616f30  4d 85 c9             test   %r9 %r9 
  0x00007ffff7616f33  89 10                mov    %edx -> (%rax) 
  0x00007ffff7616f35  74 0c                jz     $0x00007ffff7616f43 

550b9fc8
Block 82:
  0x00007ffff7616f37  31 d2                xor    %edx %edx -> %edx 
  0x00007ffff7616f39  31 f6                xor    %esi %esi -> %esi 
  0x00007ffff7616f3b  4c 89 cf             mov    %r9 -> %rdi 
  0x00007ffff7616f3e  e8 bd 96 01 00       call   $0x00007ffff7630600 %rsp -> %rsp 0xfffffff8(%rsp) 
  0x00007ffff7630600  41 54                push   %r12 %rsp -> %rsp 0xfffffff8(%rsp) 
  0x00007ffff7630602  55                   push   %rbp %rsp -> %rsp 0xfffffff8(%rsp) 
  0x00007ffff7630603  49 89 f4             mov    %rsi -> %r12 
  0x00007ffff7630606  53                   push   %rbx %rsp -> %rsp 0xfffffff8(%rsp) 
  0x00007ffff7630607  48 89 fb             mov    %rdi -> %rbx 
  0x00007ffff763060a  48 8d 3d 8f e0 37 00 lea    <rel> 0x00007ffff79ae6a0 -> %rdi 
  0x00007ffff7630611  48 89 d5             mov    %rdx -> %rbp 
  0x00007ffff7630614  e8 27 fe ff ff       call   $0x00007ffff7630440 %rsp -> %rsp 0xfffffff8(%rsp) 
  0x00007ffff7630440  55                   push   %rbp %rsp -> %rsp 0xfffffff8(%rsp) 
  0x00007ffff7630441  53                   push   %rbx %rsp -> %rsp 0xfffffff8(%rsp) 
  0x00007ffff7630442  49 89 fa             mov    %rdi -> %r10 
  0x00007ffff7630445  be 01 00 00 00       mov    $0x00000001 -> %esi 
  0x00007ffff763044a  31 c0                xor    %eax %eax -> %eax 
  0x00007ffff763044c  48 83 ec 08          sub    $0x0000000000000008 %rsp -> %rsp 
  0x00007ffff7630450  83 3d 9d 38 38 00 00 cmp    <rel> 0x00007ffff79b3cf4 $0x00000000 
  0x00007ffff7630457  74 0c                jz     $0x00007ffff7630465 

550ba008
Block 83:
  0x00007ffff7630465  0f b1 35 24 fe 37 00 cmpxchg %esi <rel> 0x00007ffff79b0290 %eax -> <rel> 0x00007ffff79b0290 %eax 
  0x00007ffff763046c  74 1a                jz     $0x00007ffff7630488 

550ba088
Block 84:
  0x00007ffff7630488  49 8b 1a             mov    (%r10) -> %rbx 
  0x00007ffff763048b  48 85 db             test   %rbx %rbx 
  0x00007ffff763048e  0f 84 f3 00 00 00    jz     $0x00007ffff7630587 

550ba0bc
Block 85:
  0x00007ffff7630494  49 89 d8             mov    %rbx -> %r8 
  0x00007ffff7630497  45 31 c9             xor    %r9d %r9d -> %r9d 
  0x00007ffff763049a  66 0f 1f 44 00 00    data16 nop    0x00(%rax,%rax,1) 
  0x00007ffff76304a0  49 8b 40 08          mov    0x08(%r8) -> %rax 
  0x00007ffff76304a4  48 85 c0             test   %rax %rax 
  0x00007ffff76304a7  74 3e                jz     $0x00007ffff76304e7 

550ba0d8
Block 86:
  0x00007ffff76304e7  49 8b 00             mov    (%r8) -> %rax 
  0x00007ffff76304ea  49 c7 40 08 00 00 00 mov    $0x00000000 -> 0x08(%r8) 
                      00
  0x00007ffff76304f2  4d 89 c1             mov    %r8 -> %r9 
  0x00007ffff76304f5  48 85 c0             test   %rax %rax 
  0x00007ffff76304f8  74 7a                jz     $0x00007ffff7630574 

550ba100
Block 87:
  0x00007ffff7630574  4d 85 c0             test   %r8 %r8 
  0x00007ffff7630577  74 0e                jz     $0x00007ffff7630587 

550ba124
Block 88:
  0x00007ffff7630579  49 8d 70 10          lea    0x10(%r8) -> %rsi 
  0x00007ffff763057d  49 c7 40 08 01 00 00 mov    $0x00000001 -> 0x08(%r8) 
                      00
  0x00007ffff7630585  eb 9b                jmp    $0x00007ffff7630522 
  0x00007ffff7630522  48 c7 06 01 00 00 00 mov    $0x00000001 -> (%rsi) 
  0x00007ffff7630529  48 83 05 cf 34 38 00 add    $0x0000000000000001 <rel> 0x00007ffff79b3a00 -> <rel> 0x00007ffff79b3a00 
                      01
  0x00007ffff7630531  83 3d bc 37 38 00 00 cmp    <rel> 0x00007ffff79b3cf4 $0x00000000 
  0x00007ffff7630538  74 0b                jz     $0x00007ffff7630545 

550ba140
Block 89:
  0x00007ffff7630545  ff 0d 45 fd 37 00    dec    <rel> 0x00007ffff79b0290 -> <rel> 0x00007ffff79b0290 
  0x00007ffff763054b  74 1a                jz     $0x00007ffff7630567 

550ba1b0
Block 90:
  0x00007ffff7630567  48 83 c4 08          add    $0x0000000000000008 %rsp -> %rsp 
  0x00007ffff763056b  48 89 f0             mov    %rsi -> %rax 
  0x00007ffff763056e  5b                   pop    %rsp (%rsp) -> %rbx %rsp 
  0x00007ffff763056f  5d                   pop    %rsp (%rsp) -> %rbp %rsp 
  0x00007ffff7630570  c3                   ret    %rsp (%rsp) -> %rsp 

7ffff7630619
Block 91:
  0x00007ffff7630619  48 85 c0             test   %rax %rax 
  0x00007ffff763061c  74 2a                jz     $0x00007ffff7630648 

550ba208
Block 92:
  0x00007ffff763061e  48 89 df             mov    %rbx -> %rdi 
  0x00007ffff7630621  4c 89 60 10          mov    %r12 -> 0x10(%rax) 
  0x00007ffff7630625  48 89 68 18          mov    %rbp -> 0x18(%rax) 
  0x00007ffff7630629  64 48 33 3c 25 30 00 xor    %fs:0x30 %rdi -> %rdi 
                      00 00
  0x00007ffff7630632  48 c1 c7 11          rol    $0x0000000000000011 %rdi -> %rdi 
  0x00007ffff7630636  48 89 78 08          mov    %rdi -> 0x08(%rax) 
  0x00007ffff763063a  48 c7 00 04 00 00 00 mov    $0x00000004 -> (%rax) 
  0x00007ffff7630641  31 c0                xor    %eax %eax -> %eax 
  0x00007ffff7630643  5b                   pop    %rsp (%rsp) -> %rbx %rsp 
  0x00007ffff7630644  5d                   pop    %rsp (%rsp) -> %rbp %rsp 
  0x00007ffff7630645  41 5c                pop    %rsp (%rsp) -> %r12 %rsp 
  0x00007ffff7630647  c3                   ret    %rsp (%rsp) -> %rsp 

7ffff7616f43
Block 93:
  0x00007ffff7616f43  48 8b 15 ee 6e 39 00 mov    <rel> 0x00007ffff79ade38 -> %rdx 
  0x00007ffff7616f4a  8b 1a                mov    (%rdx) -> %ebx 
  0x00007ffff7616f4c  83 e3 02             and    $0x00000002 %ebx -> %ebx 
  0x00007ffff7616f4f  0f 85 e3 00 00 00    jnz    $0x00007ffff7617038 

550ba284
Block 94:
  0x00007ffff7616f55  48 85 ed             test   %rbp %rbp 
  0x00007ffff7616f58  74 15                jz     $0x00007ffff7616f6f 

550ba2ac
Block 95:
  0x00007ffff7616f5a  48 8b 05 1f 6f 39 00 mov    <rel> 0x00007ffff79ade80 -> %rax 
  0x00007ffff7616f61  48 8b 74 24 08       mov    0x08(%rsp) -> %rsi 
  0x00007ffff7616f66  8b 7c 24 14          mov    0x14(%rsp) -> %edi 
  0x00007ffff7616f6a  48 8b 10             mov    (%rax) -> %rdx 
  0x00007ffff7616f6d  ff d5                call   %rbp %rsp -> %rsp 0xfffffff8(%rsp) 

4161f0
Block 96:
  0x00000000004161f0  41 57                push   %r15 %rsp -> %rsp 0xfffffff8(%rsp) 
  0x00000000004161f2  41 56                push   %r14 %rsp -> %rsp 0xfffffff8(%rsp) 
  0x00000000004161f4  41 89 ff             mov    %edi -> %r15d 
  0x00000000004161f7  41 55                push   %r13 %rsp -> %rsp 0xfffffff8(%rsp) 
  0x00000000004161f9  41 54                push   %r12 %rsp -> %rsp 0xfffffff8(%rsp) 
  0x00000000004161fb  4c 8d 25 0e 2c 20 00 lea    <rel> 0x0000000000618e10 -> %r12 
  0x0000000000416202  55                   push   %rbp %rsp -> %rsp 0xfffffff8(%rsp) 
  0x0000000000416203  48 8d 2d 0e 2c 20 00 lea    <rel> 0x0000000000618e18 -> %rbp 
  0x000000000041620a  53                   push   %rbx %rsp -> %rsp 0xfffffff8(%rsp) 
  0x000000000041620b  49 89 f6             mov    %rsi -> %r14 
  0x000000000041620e  49 89 d5             mov    %rdx -> %r13 
  0x0000000000416211  31 db                xor    %ebx %ebx -> %ebx 
  0x0000000000416213  4c 29 e5             sub    %r12 %rbp -> %rbp 
  0x0000000000416216  48 83 ec 08          sub    $0x0000000000000008 %rsp -> %rsp 
  0x000000000041621a  48 c1 fd 03          sar    $0x0000000000000003 %rbp -> %rbp 
  0x000000000041621e  e8 3d a6 fe ff       call   $0x0000000000400860 %rsp -> %rsp 0xfffffff8(%rsp) 
  0x0000000000400860  48 83 ec 08          sub    $0x0000000000000008 %rsp -> %rsp 
  0x0000000000400864  48 8b 05 8d 87 21 00 mov    <rel> 0x0000000000618ff8 -> %rax 
  0x000000000040086b  48 85 c0             test   %rax %rax 
  0x000000000040086e  74 05                jz     $0x0000000000400875 

550ba308
Block 97:
  0x0000000000400875  48 83 c4 08          add    $0x0000000000000008 %rsp -> %rsp 
  0x0000000000400879  c3                   ret    %rsp (%rsp) -> %rsp 

416223
Block 98:
  0x0000000000416223  48 85 ed             test   %rbp %rbp 
  0x0000000000416226  74 1e                jz     $0x0000000000416246 

550ba380
Block 99:
  0x0000000000416228  0f 1f 84 00 00 00 00 nop    0x00000000(%rax,%rax,1) 
                      00
  0x0000000000416230  4c 89 ea             mov    %r13 -> %rdx 
  0x0000000000416233  4c 89 f6             mov    %r14 -> %rsi 
  0x0000000000416236  44 89 ff             mov    %r15d -> %edi 
  0x0000000000416239  41 ff 14 dc          call   (%r12,%rbx,8) %rsp -> %rsp 0xfffffff8(%rsp) 

400ab0
Block 100:
  0x0000000000400ab0  bf 20 8e 61 00       mov    $0x00618e20 -> %edi 
  0x0000000000400ab5  48 83 3f 00          cmp    (%rdi) $0x0000000000000000 
  0x0000000000400ab9  75 05                jnz    $0x0000000000400ac0 

550ba3cc
Block 101:
  0x0000000000400abb  eb 93                jmp    $0x0000000000400a50 
  0x0000000000400a50  be c0 9d 61 00       mov    $0x00619dc0 -> %esi 
  0x0000000000400a55  55                   push   %rbp %rsp -> %rsp 0xfffffff8(%rsp) 
  0x0000000000400a56  48 81 ee c0 9d 61 00 sub    $0x0000000000619dc0 %rsi -> %rsi 
  0x0000000000400a5d  48 c1 fe 03          sar    $0x0000000000000003 %rsi -> %rsi 
  0x0000000000400a61  48 89 e5             mov    %rsp -> %rbp 
  0x0000000000400a64  48 89 f0             mov    %rsi -> %rax 
  0x0000000000400a67  48 c1 e8 3f          shr    $0x000000000000003f %rax -> %rax 
  0x0000000000400a6b  48 01 c6             add    %rax %rsi -> %rsi 
  0x0000000000400a6e  48 d1 fe             sar    $0x0000000000000001 %rsi -> %rsi 
  0x0000000000400a71  74 15                jz     $0x0000000000400a88 

550ba3e8
Block 102:
  0x0000000000400a88  5d                   pop    %rsp (%rsp) -> %rbp %rsp 
  0x0000000000400a89  c3                   ret    %rsp (%rsp) -> %rsp 

41623d
Block 103:
  0x000000000041623d  48 83 c3 01          add    $0x0000000000000001 %rbx -> %rbx 
  0x0000000000416241  48 39 eb             cmp    %rbx %rbp 
  0x0000000000416244  75 ea                jnz    $0x0000000000416230 

550ba438
Block 104:
  0x0000000000416246  48 83 c4 08          add    $0x0000000000000008 %rsp -> %rsp 
  0x000000000041624a  5b                   pop    %rsp (%rsp) -> %rbx %rsp 
  0x000000000041624b  5d                   pop    %rsp (%rsp) -> %rbp %rsp 
  0x000000000041624c  41 5c                pop    %rsp (%rsp) -> %r12 %rsp 
  0x000000000041624e  41 5d                pop    %rsp (%rsp) -> %r13 %rsp 
  0x0000000000416250  41 5e                pop    %rsp (%rsp) -> %r14 %rsp 
  0x0000000000416252  41 5f                pop    %rsp (%rsp) -> %r15 %rsp 
  0x0000000000416254  c3                   ret    %rsp (%rsp) -> %rsp 

7ffff7616f6f
Block 105:
  0x00007ffff7616f6f  48 8b 05 c2 6e 39 00 mov    <rel> 0x00007ffff79ade38 -> %rax 
  0x00007ffff7616f76  44 8b b0 20 01 00 00 mov    0x00000120(%rax) -> %r14d 
  0x00007ffff7616f7d  45 85 f6             test   %r14d %r14d 
  0x00007ffff7616f80  0f 85 ce 00 00 00    jnz    $0x00007ffff7617054 

550ba47c
Block 106:
  0x00007ffff7616f86  85 db                test   %ebx %ebx 
  0x00007ffff7616f88  0f 85 05 01 00 00    jnz    $0x00007ffff7617093 

550ba4a8
Block 107:
  0x00007ffff7616f8e  48 8d 7c 24 20       lea    0x20(%rsp) -> %rdi 
  0x00007ffff7616f93  e8 88 47 01 00       call   $0x00007ffff762b720 %rsp -> %rsp 0xfffffff8(%rsp) 
  0x00007ffff762b720  31 f6                xor    %esi %esi -> %esi 
  0x00007ffff762b722  e9 59 ff ff ff       jmp    $0x00007ffff762b680 
  0x00007ffff762b680  48 89 1f             mov    %rbx -> (%rdi) 
  0x00007ffff762b683  48 89 e8             mov    %rbp -> %rax 
  0x00007ffff762b686  64 48 33 04 25 30 00 xor    %fs:0x30 %rax -> %rax 
                      00 00
  0x00007ffff762b68f  48 c1 c0 11          rol    $0x0000000000000011 %rax -> %rax 
  0x00007ffff762b693  48 89 47 08          mov    %rax -> 0x08(%rdi) 
  0x00007ffff762b697  4c 89 67 10          mov    %r12 -> 0x10(%rdi) 
  0x00007ffff762b69b  4c 89 6f 18          mov    %r13 -> 0x18(%rdi) 
  0x00007ffff762b69f  4c 89 77 20          mov    %r14 -> 0x20(%rdi) 
  0x00007ffff762b6a3  4c 89 7f 28          mov    %r15 -> 0x28(%rdi) 
  0x00007ffff762b6a7  48 8d 54 24 08       lea    0x08(%rsp) -> %rdx 
  0x00007ffff762b6ac  64 48 33 14 25 30 00 xor    %fs:0x30 %rdx -> %rdx 
                      00 00
  0x00007ffff762b6b5  48 c1 c2 11          rol    $0x0000000000000011 %rdx -> %rdx 
  0x00007ffff762b6b9  48 89 57 30          mov    %rdx -> 0x30(%rdi) 
  0x00007ffff762b6bd  48 8b 04 24          mov    (%rsp) -> %rax 
  0x00007ffff762b6c1  90                   nop    
  0x00007ffff762b6c2  64 48 33 04 25 30 00 xor    %fs:0x30 %rax -> %rax 
                      00 00
  0x00007ffff762b6cb  48 c1 c0 11          rol    $0x0000000000000011 %rax -> %rax 
  0x00007ffff762b6cf  48 89 47 38          mov    %rax -> 0x38(%rdi) 
  0x00007ffff762b6d3  e9 08 00 00 00       jmp    $0x00007ffff762b6e0 
  0x00007ffff762b6e0  31 c0                xor    %eax %eax -> %eax 
  0x00007ffff762b6e2  85 f6                test   %esi %esi 
  0x00007ffff762b6e4  53                   push   %rbx %rsp -> %rsp 0xfffffff8(%rsp) 
  0x00007ffff762b6e5  48 89 fb             mov    %rdi -> %rbx 
  0x00007ffff762b6e8  74 15                jz     $0x00007ffff762b6ff 

550ba4c4
Block 108:
  0x00007ffff762b6ff  89 43 40             mov    %eax -> 0x40(%rbx) 
  0x00007ffff762b702  31 c0                xor    %eax %eax -> %eax 
  0x00007ffff762b704  5b                   pop    %rsp (%rsp) -> %rbx %rsp 
  0x00007ffff762b705  c3                   ret    %rsp (%rsp) -> %rsp 

7ffff7616f98
Block 109:
  0x00007ffff7616f98  85 c0                test   %eax %eax 
  0x00007ffff7616f9a  75 52                jnz    $0x00007ffff7616fee 

550ba5bc
Block 110:
  0x00007ffff7616f9c  64 48 8b 04 25 00 03 mov    %fs:0x00000300 -> %rax 
                      00 00
  0x00007ffff7616fa5  48 89 44 24 68       mov    %rax -> 0x68(%rsp) 
  0x00007ffff7616faa  64 48 8b 04 25 f8 02 mov    %fs:0x000002f8 -> %rax 
                      00 00
  0x00007ffff7616fb3  48 89 44 24 70       mov    %rax -> 0x70(%rsp) 
  0x00007ffff7616fb8  48 8d 44 24 20       lea    0x20(%rsp) -> %rax 
  0x00007ffff7616fbd  64 48 89 04 25 00 03 mov    %rax -> %fs:0x00000300 
                      00 00
  0x00007ffff7616fc6  48 8b 05 b3 6e 39 00 mov    <rel> 0x00007ffff79ade80 -> %rax 
  0x00007ffff7616fcd  48 8b 74 24 08       mov    0x08(%rsp) -> %rsi 
  0x00007ffff7616fd2  8b 7c 24 14          mov    0x14(%rsp) -> %edi 
  0x00007ffff7616fd6  48 8b 10             mov    (%rax) -> %rdx 
  0x00007ffff7616fd9  48 8b 44 24 18       mov    0x18(%rsp) -> %rax 
  0x00007ffff7616fde  ff d0                call   %rax %rsp -> %rsp 0xfffffff8(%rsp) 

401d34
Block 111:
  0x0000000000401d34  55                   push   %rbp %rsp -> %rsp 0xfffffff8(%rsp) 
  0x0000000000401d35  48 89 e5             mov    %rsp -> %rbp 
  0x0000000000401d38  48 83 ec 30          sub    $0x0000000000000030 %rsp -> %rsp 
  0x0000000000401d3c  89 7d dc             mov    %edi -> 0xffffffdc(%rbp) 
  0x0000000000401d3f  48 89 75 d0          mov    %rsi -> 0xffffffd0(%rbp) 
  0x0000000000401d43  48 8d 45 f0          lea    0xfffffff0(%rbp) -> %rax 
  0x0000000000401d47  be 00 00 00 00       mov    $0x00000000 -> %esi 
  0x0000000000401d4c  48 89 c7             mov    %rax -> %rdi 
  0x0000000000401d4f  b8 00 00 00 00       mov    $0x00000000 -> %eax 
  0x0000000000401d54  e8 77 eb ff ff       call   $0x00000000004008d0 %rsp -> %rsp 0xfffffff8(%rsp) 
  0x00000000004008d0  ff 25 62 87 21 00    jmp    <rel> 0x0000000000619038 

4008d6
Block 112:
  0x00000000004008d6  68 04 00 00 00       push   $0x0000000000000004 %rsp -> %rsp 0xfffffff8(%rsp) 
  0x00000000004008db  e9 a0 ff ff ff       jmp    $0x0000000000400880 
  0x0000000000400880  ff 35 82 87 21 00    push   <rel> 0x0000000000619008 %rsp -> %rsp 0xfffffff8(%rsp) 
  0x0000000000400886  ff 25 84 87 21 00    jmp    <rel> 0x0000000000619010 

7ffff7df12e0
550b9219
550b92d4
550b92f4
550b9350
550b9408
550b9440
550b9440
550b9440
550b9440
550b9440
550b9440
550b9440
550b9440
550b9440
550b9440
550b9440
550b946c
550b94dc
550b9504
550b9600
550b961c
550b9638
550b9671
550b968c
550b96d4
550b971c
550b9738
550b975c
7ffff7debf05
550b97cc
550b97e8
550b9804
7ffff7debf34
550b9830
550b984c
7ffff7de4da6
550b988c
550b98a8
550b98c8
550b9600
550b961c
550b9638
550b9671
550b968c
550b96d4
550b971c
550b9738
550b975c
7ffff7debf05
550b97cc
550b97e8
550b9804
7ffff7debf34
550b9830
550b984c
7ffff7de4da6
550b988c
550b98a8
550b98c8
550b9600
550b961c
550b9638
550b9671
550b968c
550b96d4
550b971c
550b9738
550b975c
7ffff7debf05
550b97cc
550b97e8
550b9804
7ffff7debf34
550b9830
550b984c
7ffff7de4da6
550b988c
550b98a8
550b98c8
550b9600
550b961c
550b9638
550b9671
550b968c
550b96d4
550b971c
550b9738
550b975c
7ffff7debf05
550b97cc
550b97e8
550b9804
7ffff7debf34
550b9830
550b984c
7ffff7de4da6
550b988c
550b98a8
550b98c8
550b9600
550b961c
550b9638
550b9671
550b968c
550b96d4
550b98e8
550b9914
Block 113:
  0x00007ffff7de52b0  48 83 c5 04          add    $0x0000000000000004 %rbp -> %rbp 
  0x00007ffff7de52b4  a8 01                test   %al $0x01 
  0x00007ffff7de52b6  0f 85 40 02 00 00    jnz    $0x00007ffff7de54fc 

550ba6e0
Block 114:
  0x00007ffff7de52bc  8b 55 00             mov    0x00(%rbp) -> %edx 
  0x00007ffff7de52bf  48 89 d0             mov    %rdx -> %rax 
  0x00007ffff7de52c2  4c 31 fa             xor    %r15 %rdx -> %rdx 
  0x00007ffff7de52c5  48 d1 ea             shr    $0x0000000000000001 %rdx -> %rdx 
  0x00007ffff7de52c8  75 e6                jnz    $0x00007ffff7de52b0 

550ba6fc
550b9980
550b99fc
550b9a18
550b9a3c
550b9a5d
550b9a8c
550b9abc
550b9ad8
550b9abc
550b9ad8
550b9abc
550b9ad8
550b9abc
550b9ad8
550b9abc
550b9ad8
550b9abc
550b9ad8
550b9abc
550b9ad8
550b9abc
550b9ad8
550b9abc
550b9ad8
550b9abc
550b9ad8
550b9abc
550b9ad8
550b9abc
550b9ad8
550b9abc
7ffff7de4b4b
550b9b10
550b9b2e
550b9b4c
550b9b68
550b9ba6
550b9abc
550b9ad8
550b9abc
550b9ad8
550b9abc
550b9ad8
550b9abc
550b9ad8
550b9abc
550b9ad8
550b9abc
550b9ad8
550b9abc
550b9ad8
550b9abc
550b9ad8
550b9abc
550b9ad8
550b9abc
550b9ad8
550b9abc
550b9ad8
550b9abc
7ffff7de4bd4
550b9bd4
7ffff7de531f
550b9c14
550b9c30
Block 115:
  0x00007ffff7de50a0  8b 15 e6 7b 21 00    mov    <rel> 0x00007ffff7ffcc8c -> %edx 
  0x00007ffff7de50a6  85 d2                test   %edx %edx 
  0x00007ffff7de50a8  0f 85 ce 04 00 00    jnz    $0x00007ffff7de557c 

550ba71c
7ffff7de57f8
550b9cec
550b9d08
550b9d24
550b9d40
550b9d5f
550b9d8c
550b9da8
7ffff7dea36c
550b9e00
550b9e2c
550b9e54
550b9e98
550b9eb4
Block 116:
  0x00007ffff7dea450  ff d0                call   %rax %rsp -> %rsp 0xfffffff8(%rsp) 

7ffff76ab720
Block 117:
  0x00007ffff76ab720  48 83 ec 28          sub    $0x0000000000000028 %rsp -> %rsp 
  0x00007ffff76ab724  48 8d 05 fd f5 0c 00 lea    <rel> 0x00007ffff777ad28 -> %rax 
  0x00007ffff76ab72b  48 8d 3d aa 0a 0d 00 lea    <rel> 0x00007ffff777c1dc -> %rdi 
  0x00007ffff76ab732  48 89 e6             mov    %rsp -> %rsi 
  0x00007ffff76ab735  c7 44 24 0c 01 00 00 mov    $0x00000001 -> 0x0c(%rsp) 
                      00
  0x00007ffff76ab73d  c7 44 24 08 f6 75 ae mov    $0x03ae75f6 -> 0x08(%rsp) 
                      03
  0x00007ffff76ab745  48 89 04 24          mov    %rax -> (%rsp) 
  0x00007ffff76ab749  48 c7 44 24 10 00 00 mov    $0x00000000 -> 0x10(%rsp) 
                      00 00
  0x00007ffff76ab752  e8 d9 73 08 00       call   $0x00007ffff7732b30 %rsp -> %rsp 0xfffffff8(%rsp) 
  0x00007ffff7732b30  4c 8b 15 01 b3 27 00 mov    <rel> 0x00007ffff79ade38 -> %r10 
  0x00007ffff7732b37  49 8b 82 b8 00 00 00 mov    0x000000b8(%r10) -> %rax 
  0x00007ffff7732b3e  48 85 c0             test   %rax %rax 
  0x00007ffff7732b41  0f 84 81 00 00 00    jz     $0x00007ffff7732bc8 

550ba768
Block 118:
  0x00007ffff7732b47  48 83 ec 38          sub    $0x0000000000000038 %rsp -> %rsp 
  0x00007ffff7732b4b  49 89 f0             mov    %rsi -> %r8 
  0x00007ffff7732b4e  48 8d 88 88 03 00 00 lea    0x00000388(%rax) -> %rcx 
  0x00007ffff7732b55  48 8d 54 24 10       lea    0x10(%rsp) -> %rdx 
  0x00007ffff7732b5a  48 c7 44 24 10 00 00 mov    $0x00000000 -> 0x10(%rsp) 
                      00 00
  0x00007ffff7732b63  48 c7 44 24 18 00 00 mov    $0x00000000 -> 0x18(%rsp) 
                      00 00
  0x00007ffff7732b6c  48 c7 44 24 20 00 00 mov    $0x00000000 -> 0x20(%rsp) 
                      00 00
  0x00007ffff7732b75  c6 44 24 14 20       mov    $0x20 -> 0x14(%rsp) 
  0x00007ffff7732b7a  45 31 c9             xor    %r9d %r9d -> %r9d 
  0x00007ffff7732b7d  48 89 54 24 08       mov    %rdx -> 0x08(%rsp) 
  0x00007ffff7732b82  48 89 c6             mov    %rax -> %rsi 
  0x00007ffff7732b85  48 8d 54 24 08       lea    0x08(%rsp) -> %rdx 
  0x00007ffff7732b8a  6a 00                push   $0x0000000000000000 %rsp -> %rsp 0xfffffff8(%rsp) 
  0x00007ffff7732b8c  6a 00                push   $0x0000000000000000 %rsp -> %rsp 0xfffffff8(%rsp) 
  0x00007ffff7732b8e  41 ff 92 e8 00 00 00 call   0x000000e8(%r10) %rsp -> %rsp 0xfffffff8(%rsp) 

7ffff7de56c0
Block 119:
  0x00007ffff7de56c0  55                   push   %rbp %rsp -> %rsp 0xfffffff8(%rsp) 
  0x00007ffff7de56c1  48 89 e5             mov    %rsp -> %rbp 
  0x00007ffff7de56c4  41 57                push   %r15 %rsp -> %rsp 0xfffffff8(%rsp) 
  0x00007ffff7de56c6  41 56                push   %r14 %rsp -> %rsp 0xfffffff8(%rsp) 
  0x00007ffff7de56c8  41 55                push   %r13 %rsp -> %rsp 0xfffffff8(%rsp) 
  0x00007ffff7de56ca  41 54                push   %r12 %rsp -> %rsp 0xfffffff8(%rsp) 
  0x00007ffff7de56cc  49 89 d4             mov    %rdx -> %r12 
  0x00007ffff7de56cf  53                   push   %rbx %rsp -> %rsp 0xfffffff8(%rsp) 
  0x00007ffff7de56d0  49 89 f5             mov    %rsi -> %r13 
  0x00007ffff7de56d3  4d 89 c7             mov    %r8 -> %r15 
  0x00007ffff7de56d6  48 81 ec c8 00 00 00 sub    $0x00000000000000c8 %rsp -> %rsp 
  0x00007ffff7de56dd  0f b6 17             movzx  (%rdi) -> %edx 
  0x00007ffff7de56e0  48 89 bd 58 ff ff ff mov    %rdi -> 0xffffff58(%rbp) 
  0x00007ffff7de56e7  48 89 8d 30 ff ff ff mov    %rcx -> 0xffffff30(%rbp) 
  0x00007ffff7de56ee  44 89 8d 44 ff ff ff mov    %r9d -> 0xffffff44(%rbp) 
  0x00007ffff7de56f5  4c 8b 75 18          mov    0x18(%rbp) -> %r14 
  0x00007ffff7de56f9  84 d2                test   %dl %dl 
  0x00007ffff7de56fb  0f 84 bb 02 00 00    jz     $0x00007ffff7de59bc 

550ba84c
550b9408
550b9440
550b9440
550b9440
550b9440
550b9440
550b9440
550b9440
550b9440
550b9440
550b9440
550b9440
550b9440
550b9440
550b9440
550b9440
550b9440
550b9440
550b9440
550b946c
550b94dc
550b9504
550b9600
550b961c
550b9638
550b9671
550b968c
Block 120:
  0x00007ffff7de4e40  48 8b 44 24 48       mov    0x48(%rsp) -> %rax 
  0x00007ffff7de4e45  be ff ff ff ff       mov    $0xffffffff -> %esi 
  0x00007ffff7de4e4a  48 8b 00             mov    (%rax) -> %rax 
  0x00007ffff7de4e4d  48 39 f0             cmp    %rax %rsi 
  0x00007ffff7de4e50  0f 84 41 07 00 00    jz     $0x00007ffff7de5597 

550ba89c
Block 121:
  0x00007ffff7de5597  48 8b 04 24          mov    (%rsp) -> %rax 
  0x00007ffff7de559b  31 c9                xor    %ecx %ecx -> %ecx 
  0x00007ffff7de559d  0f b6 30             movzx  (%rax) -> %esi 
  0x00007ffff7de55a0  48 85 f6             test   %rsi %rsi 
  0x00007ffff7de55a3  0f 84 a2 00 00 00    jz     $0x00007ffff7de564b 

550ba8c0
Block 122:
  0x00007ffff7de55a9  0f b6 40 01          movzx  0x01(%rax) -> %eax 
  0x00007ffff7de55ad  84 c0                test   %al %al 
  0x00007ffff7de55af  0f 84 ca 00 00 00    jz     $0x00007ffff7de567f 

550ba8e0
Block 123:
  0x00007ffff7de55b5  48 c1 e6 04          shl    $0x0000000000000004 %rsi -> %rsi 
  0x00007ffff7de55b9  48 01 c6             add    %rax %rsi -> %rsi 
  0x00007ffff7de55bc  48 8b 04 24          mov    (%rsp) -> %rax 
  0x00007ffff7de55c0  0f b6 40 02          movzx  0x02(%rax) -> %eax 
  0x00007ffff7de55c4  84 c0                test   %al %al 
  0x00007ffff7de55c6  0f 84 b3 00 00 00    jz     $0x00007ffff7de567f 

550ba8fc
Block 124:
  0x00007ffff7de55cc  48 c1 e6 04          shl    $0x0000000000000004 %rsi -> %rsi 
  0x00007ffff7de55d0  48 01 c6             add    %rax %rsi -> %rsi 
  0x00007ffff7de55d3  48 8b 04 24          mov    (%rsp) -> %rax 
  0x00007ffff7de55d7  0f b6 40 03          movzx  0x03(%rax) -> %eax 
  0x00007ffff7de55db  84 c0                test   %al %al 
  0x00007ffff7de55dd  0f 84 9c 00 00 00    jz     $0x00007ffff7de567f 

550ba920
Block 125:
  0x00007ffff7de55e3  48 c1 e6 04          shl    $0x0000000000000004 %rsi -> %rsi 
  0x00007ffff7de55e7  48 01 c6             add    %rax %rsi -> %rsi 
  0x00007ffff7de55ea  48 8b 04 24          mov    (%rsp) -> %rax 
  0x00007ffff7de55ee  0f b6 40 04          movzx  0x04(%rax) -> %eax 
  0x00007ffff7de55f2  84 c0                test   %al %al 
  0x00007ffff7de55f4  0f 84 85 00 00 00    jz     $0x00007ffff7de567f 

550ba944
Block 126:
  0x00007ffff7de55fa  48 c1 e6 04          shl    $0x0000000000000004 %rsi -> %rsi 
  0x00007ffff7de55fe  48 01 c6             add    %rax %rsi -> %rsi 
  0x00007ffff7de5601  48 8b 04 24          mov    (%rsp) -> %rax 
  0x00007ffff7de5605  48 8d 48 05          lea    0x05(%rax) -> %rcx 
  0x00007ffff7de5609  0f b6 40 05          movzx  0x05(%rax) -> %eax 
  0x00007ffff7de560d  84 c0                test   %al %al 
  0x00007ffff7de560f  74 22                jz     $0x00007ffff7de5633 

550ba969
Block 127:
  0x00007ffff7de5611  48 c1 e6 04          shl    $0x0000000000000004 %rsi -> %rsi 
  0x00007ffff7de5615  48 83 c1 01          add    $0x0000000000000001 %rcx -> %rcx 
  0x00007ffff7de5619  48 01 f0             add    %rsi %rax -> %rax 
  0x00007ffff7de561c  48 89 c6             mov    %rax -> %rsi 
  0x00007ffff7de561f  81 e6 00 00 00 f0    and    $0xf0000000 %esi -> %esi 
  0x00007ffff7de5625  48 c1 ee 18          shr    $0x0000000000000018 %rsi -> %rsi 
  0x00007ffff7de5629  48 31 c6             xor    %rax %rsi -> %rsi 
  0x00007ffff7de562c  0f b6 01             movzx  (%rcx) -> %eax 
  0x00007ffff7de562f  84 c0                test   %al %al 
  0x00007ffff7de5631  75 de                jnz    $0x00007ffff7de5611 

550ba994
550ba994
550ba994
550ba994
550ba994
550ba994
550ba994
550ba994
550ba994
550ba994
550ba994
550ba994
550ba994
550ba994
Block 128:
  0x00007ffff7de5633  81 e6 ff ff ff 0f    and    $0x0fffffff %esi -> %esi 
  0x00007ffff7de5639  89 d1                mov    %edx -> %ecx 
  0x00007ffff7de563b  31 d2                xor    %edx %edx -> %edx 
  0x00007ffff7de563d  48 89 f0             mov    %rsi -> %rax 
  0x00007ffff7de5640  48 f7 f1             div    %rcx %rdx %rax -> %rdx %rax 
  0x00007ffff7de5643  48 8d 0c 95 00 00 00 lea    0x00(,%rdx,4) -> %rcx 
                      00
  0x00007ffff7de564b  48 8b 44 24 48       mov    0x48(%rsp) -> %rax 
  0x00007ffff7de5650  48 89 30             mov    %rsi -> (%rax) 
  0x00007ffff7de5653  e9 0d f8 ff ff       jmp    $0x00007ffff7de4e65 
  0x00007ffff7de4e65  48 8b 83 08 03 00 00 mov    0x00000308(%rbx) -> %rax 
  0x00007ffff7de4e6c  44 8b 14 08          mov    (%rax,%rcx,1) -> %r10d 
  0x00007ffff7de4e70  45 85 d2             test   %r10d %r10d 
  0x00007ffff7de4e73  0f 84 04 ff ff ff    jz     $0x00007ffff7de4d7d 

550ba9cb
Block 129:
  0x00007ffff7de4e79  48 8d 83 e0 02 00 00 lea    0x000002e0(%rbx) -> %rax 
  0x00007ffff7de4e80  48 8d b3 30 03 00 00 lea    0x00000330(%rbx) -> %rsi 
  0x00007ffff7de4e87  4c 89 6c 24 50       mov    %r13 -> 0x50(%rsp) 
  0x00007ffff7de4e8c  44 89 7c 24 58       mov    %r15d -> 0x58(%rsp) 
  0x00007ffff7de4e91  4c 89 74 24 60       mov    %r14 -> 0x60(%rsp) 
  0x00007ffff7de4e96  49 89 fc             mov    %rdi -> %r12 
  0x00007ffff7de4e99  45 89 d7             mov    %r10d -> %r15d 
  0x00007ffff7de4e9c  49 89 c5             mov    %rax -> %r13 
  0x00007ffff7de4e9f  48 89 ac 24 c0 00 00 mov    %rbp -> 0x000000c0(%rsp) 
                      00
  0x00007ffff7de4ea7  4c 89 9c 24 d8 00 00 mov    %r11 -> 0x000000d8(%rsp) 
                      00
  0x00007ffff7de4eaf  49 89 f6             mov    %rsi -> %r14 
  0x00007ffff7de4eb2  eb 18                jmp    $0x00007ffff7de4ecc 
  0x00007ffff7de4ecc  44 89 fd             mov    %r15d -> %ebp 
  0x00007ffff7de4ecf  ff 74 24 18          push   0x18(%rsp) %rsp -> %rsp 0xfffffff8(%rsp) 
  0x00007ffff7de4ed3  ff 74 24 28          push   0x28(%rsp) %rsp -> %rsp 0xfffffff8(%rsp) 
  0x00007ffff7de4ed7  48 8d 44 6d 00       lea    0x00(%rbp,%rbp,2) -> %rax 
  0x00007ffff7de4edc  41 56                push   %r14 %rsp -> %rsp 0xfffffff8(%rsp) 
  0x00007ffff7de4ede  41 55                push   %r13 %rsp -> %rsp 0xfffffff8(%rsp) 
  0x00007ffff7de4ee0  ff 74 24 28          push   0x28(%rsp) %rsp -> %rsp 0xfffffff8(%rsp) 
  0x00007ffff7de4ee4  41 57                push   %r15 %rsp -> %rsp 0xfffffff8(%rsp) 
  0x00007ffff7de4ee6  44 8b 84 24 10 01 00 mov    0x00000110(%rsp) -> %r8d 
                      00
  0x00007ffff7de4eee  8b 8c 24 00 01 00 00 mov    0x00000100(%rsp) -> %ecx 
  0x00007ffff7de4ef5  4d 8d 0c c4          lea    (%r12,%rax,8) -> %r9 
  0x00007ffff7de4ef9  48 8b 94 24 f8 00 00 mov    0x000000f8(%rsp) -> %rdx 
                      00
  0x00007ffff7de4f01  48 8b 74 24 40       mov    0x40(%rsp) -> %rsi 
  0x00007ffff7de4f06  48 8b 7c 24 30       mov    0x30(%rsp) -> %rdi 
  0x00007ffff7de4f0b  e8 d0 fb ff ff       call   $0x00007ffff7de4ae0 %rsp -> %rsp 0xfffffff8(%rsp) 
  0x00007ffff7de4ae0  41 0f b6 41 04       movzx  0x04(%r9) -> %eax 
  0x00007ffff7de4ae5  83 e0 0f             and    $0x0000000f %eax -> %eax 
  0x00007ffff7de4ae8  3c 06                cmp    %al $0x06 
  0x00007ffff7de4aea  74 0b                jz     $0x00007ffff7de4af7 

550baa0c
550b99fc
550b9a18
550b9a3c
550b9a5d
550b9a8c
550b9abc
550b9ad8
550b9abc
550b9ad8
550b9abc
550b9ad8
550b9abc
550b9ad8
550b9abc
550b9ad8
550b9abc
550b9ad8
550b9abc
550b9ad8
7ffff7de4b4b
550b9b10
Block 130:
  0x00007ffff7de4c28  48 83 c4 08          add    $0x0000000000000008 %rsp -> %rsp 
  0x00007ffff7de4c2c  31 c0                xor    %eax %eax -> %eax 
  0x00007ffff7de4c2e  5b                   pop    %rsp (%rsp) -> %rbx %rsp 
  0x00007ffff7de4c2f  5d                   pop    %rsp (%rsp) -> %rbp %rsp 
  0x00007ffff7de4c30  41 5c                pop    %rsp (%rsp) -> %r12 %rsp 
  0x00007ffff7de4c32  41 5d                pop    %rsp (%rsp) -> %r13 %rsp 
  0x00007ffff7de4c34  c3                   ret    %rsp (%rsp) -> %rsp 

7ffff7de4f10
Block 131:
  0x00007ffff7de4f10  48 83 c4 30          add    $0x0000000000000030 %rsp -> %rsp 
  0x00007ffff7de4f14  48 85 c0             test   %rax %rax 
  0x00007ffff7de4f17  74 9f                jz     $0x00007ffff7de4eb8 

550baad4
Block 132:
  0x00007ffff7de4eb8  48 8b 83 00 03 00 00 mov    0x00000300(%rbx) -> %rax 
  0x00007ffff7de4ebf  44 8b 3c a8          mov    (%rax,%rbp,4) -> %r15d 
  0x00007ffff7de4ec3  45 85 ff             test   %r15d %r15d 
  0x00007ffff7de4ec6  0f 84 74 04 00 00    jz     $0x00007ffff7de5340 

550baaf0
Block 133:
  0x00007ffff7de4ecc  44 89 fd             mov    %r15d -> %ebp 
  0x00007ffff7de4ecf  ff 74 24 18          push   0x18(%rsp) %rsp -> %rsp 0xfffffff8(%rsp) 
  0x00007ffff7de4ed3  ff 74 24 28          push   0x28(%rsp) %rsp -> %rsp 0xfffffff8(%rsp) 
  0x00007ffff7de4ed7  48 8d 44 6d 00       lea    0x00(%rbp,%rbp,2) -> %rax 
  0x00007ffff7de4edc  41 56                push   %r14 %rsp -> %rsp 0xfffffff8(%rsp) 
  0x00007ffff7de4ede  41 55                push   %r13 %rsp -> %rsp 0xfffffff8(%rsp) 
  0x00007ffff7de4ee0  ff 74 24 28          push   0x28(%rsp) %rsp -> %rsp 0xfffffff8(%rsp) 
  0x00007ffff7de4ee4  41 57                push   %r15 %rsp -> %rsp 0xfffffff8(%rsp) 
  0x00007ffff7de4ee6  44 8b 84 24 10 01 00 mov    0x00000110(%rsp) -> %r8d 
                      00
  0x00007ffff7de4eee  8b 8c 24 00 01 00 00 mov    0x00000100(%rsp) -> %ecx 
  0x00007ffff7de4ef5  4d 8d 0c c4          lea    (%r12,%rax,8) -> %r9 
  0x00007ffff7de4ef9  48 8b 94 24 f8 00 00 mov    0x000000f8(%rsp) -> %rdx 
                      00
  0x00007ffff7de4f01  48 8b 74 24 40       mov    0x40(%rsp) -> %rsi 
  0x00007ffff7de4f06  48 8b 7c 24 30       mov    0x30(%rsp) -> %rdi 
  0x00007ffff7de4f0b  e8 d0 fb ff ff       call   $0x00007ffff7de4ae0 %rsp -> %rsp 0xfffffff8(%rsp) 
  0x00007ffff7de4ae0  41 0f b6 41 04       movzx  0x04(%r9) -> %eax 
  0x00007ffff7de4ae5  83 e0 0f             and    $0x0000000f %eax -> %eax 
  0x00007ffff7de4ae8  3c 06                cmp    %al $0x06 
  0x00007ffff7de4aea  74 0b                jz     $0x00007ffff7de4af7 

550bab14
550b99fc
550b9a18
550b9a3c
550b9a5d
550b9a8c
7ffff7de4b4b
550b9b10
7ffff7de4f10
550baad4
550baaf0
550bab14
550b99fc
550b9a18
550b9a3c
550b9a5d
550b9a8c
550b9abc
550b9ad8
550b9abc
550b9ad8
550b9abc
550b9ad8
550b9abc
550b9ad8
550b9abc
550b9ad8
550b9abc
550b9ad8
550b9abc
550b9ad8
550b9abc
550b9ad8
550b9abc
550b9ad8
550b9abc
550b9ad8
7ffff7de4b4b
550b9b10
7ffff7de4f10
550baad4
550baaf0
550bab14
550b99fc
550b9a18
550b9a3c
550b9a5d
550b9a8c
550b9abc
550b9ad8
550b9abc
550b9ad8
550b9abc
550b9ad8
550b9abc
550b9ad8
550b9abc
550b9ad8
550b9abc
550b9ad8
550b9abc
550b9ad8
550b9abc
550b9ad8
550b9abc
550b9ad8
550b9abc
550b9ad8
550b9abc
550b9ad8
550b9abc
550b9ad8
550b9abc
550b9ad8
550b9abc
550b9ad8
550b9abc
550b9ad8
550b9abc
550b9ad8
550b9abc
550b9ad8
550b9abc
550b9ad8
550b9abc
550b9ad8
550b9abc
7ffff7de4b4b
550b9b10
550b9b2e
550b9b4c
550b9b68
550b9ba6
550b9abc
550b9ad8
550b9abc
550b9ad8
550b9abc
550b9ad8
550b9abc
550b9ad8
550b9abc
550b9ad8
550b9abc
550b9ad8
550b9abc
550b9ad8
550b9abc
550b9ad8
550b9abc
550b9ad8
550b9abc
7ffff7de4bd4
550b9bd4
7ffff7de4f10
550baad4
Block 134:
  0x00007ffff7de4f19  0f b6 50 04          movzx  0x04(%rax) -> %edx 
  0x00007ffff7de4f1d  45 89 fa             mov    %r15d -> %r10d 
  0x00007ffff7de4f20  4c 8b 6c 24 50       mov    0x50(%rsp) -> %r13 
  0x00007ffff7de4f25  44 8b 7c 24 58       mov    0x58(%rsp) -> %r15d 
  0x00007ffff7de4f2a  48 8b ac 24 c0 00 00 mov    0x000000c0(%rsp) -> %rbp 
                      00
  0x00007ffff7de4f32  4c 8b 9c 24 d8 00 00 mov    0x000000d8(%rsp) -> %r11 
                      00
  0x00007ffff7de4f3a  4c 8b 74 24 60       mov    0x60(%rsp) -> %r14 
  0x00007ffff7de4f3f  c0 ea 04             shr    $0x04 %dl -> %dl 
  0x00007ffff7de4f42  80 fa 02             cmp    %dl $0x02 
  0x00007ffff7de4f45  0f 84 55 01 00 00    jz     $0x00007ffff7de50a0 

550bab80
Block 135:
  0x00007ffff7de4f4b  80 fa 0a             cmp    %dl $0x0a 
  0x00007ffff7de4f4e  74 10                jz     $0x00007ffff7de4f60 

550babc0
Block 136:
  0x00007ffff7de4f50  80 fa 01             cmp    %dl $0x01 
  0x00007ffff7de4f53  0f 85 5f fe ff ff    jnz    $0x00007ffff7de4db8 

550babdc
Block 137:
  0x00007ffff7de4f59  e9 50 01 00 00       jmp    $0x00007ffff7de50ae 
  0x00007ffff7de50ae  48 89 c7             mov    %rax -> %rdi 
  0x00007ffff7de50b1  48 89 44 24 18       mov    %rax -> 0x18(%rsp) 
  0x00007ffff7de50b6  48 8b 44 24 40       mov    0x40(%rsp) -> %rax 
  0x00007ffff7de50bb  48 89 38             mov    %rdi -> (%rax) 
  0x00007ffff7de50be  48 89 58 08          mov    %rbx -> 0x08(%rax) 
  0x00007ffff7de50c2  b8 01 00 00 00       mov    $0x00000001 -> %eax 
  0x00007ffff7de50c7  e9 04 fd ff ff       jmp    $0x00007ffff7de4dd0 
  0x00007ffff7de4dd0  48 81 c4 88 00 00 00 add    $0x0000000000000088 %rsp -> %rsp 
  0x00007ffff7de4dd7  5b                   pop    %rsp (%rsp) -> %rbx %rsp 
  0x00007ffff7de4dd8  5d                   pop    %rsp (%rsp) -> %rbp %rsp 
  0x00007ffff7de4dd9  41 5c                pop    %rsp (%rsp) -> %r12 %rsp 
  0x00007ffff7de4ddb  41 5d                pop    %rsp (%rsp) -> %r13 %rsp 
  0x00007ffff7de4ddd  41 5e                pop    %rsp (%rsp) -> %r14 %rsp 
  0x00007ffff7de4ddf  41 5f                pop    %rsp (%rsp) -> %r15 %rsp 
  0x00007ffff7de4de1  c3                   ret    %rsp (%rsp) -> %rsp 

7ffff7de57f8
550b9cec
550b9d08
550b9d24
550b9d40
550b9d5f
550b9d8c
550b9da8
7ffff7732b95
Block 138:
  0x00007ffff7732b95  48 8b 54 24 18       mov    0x18(%rsp) -> %rdx 
  0x00007ffff7732b9a  59                   pop    %rsp (%rsp) -> %rcx %rsp 
  0x00007ffff7732b9b  5e                   pop    %rsp (%rsp) -> %rsi %rsp 
  0x00007ffff7732b9c  48 85 d2             test   %rdx %rdx 
  0x00007ffff7732b9f  74 17                jz     $0x00007ffff7732bb8 

550bac3c
Block 139:
  0x00007ffff7732ba1  48 85 c0             test   %rax %rax 
  0x00007ffff7732ba4  74 1a                jz     $0x00007ffff7732bc0 

550bac5c
Block 140:
  0x00007ffff7732ba6  48 8b 00             mov    (%rax) -> %rax 
  0x00007ffff7732ba9  48 03 42 08          add    0x08(%rdx) %rax -> %rax 
  0x00007ffff7732bad  48 83 c4 38          add    $0x0000000000000038 %rsp -> %rsp 
  0x00007ffff7732bb1  c3                   ret    %rsp (%rsp) -> %rsp 

7ffff76ab757
Block 141:
  0x00007ffff76ab757  48 c7 c2 00 00 60 ff mov    $0xff600000 -> %rdx 
  0x00007ffff76ab75e  48 85 c0             test   %rax %rax 
  0x00007ffff76ab761  48 0f 44 c2          cmovz  %rdx %rax -> %rax 
  0x00007ffff76ab765  48 83 c4 28          add    $0x0000000000000028 %rsp -> %rsp 
  0x00007ffff76ab769  c3                   ret    %rsp (%rsp) -> %rsp 

7ffff7dea452
Block 142:
  0x00007ffff7dea452  e9 65 ff ff ff       jmp    $0x00007ffff7dea3bc 
  0x00007ffff7dea3bc  8b 15 c6 28 21 00    mov    <rel> 0x00007ffff7ffcc88 -> %edx 
  0x00007ffff7dea3c2  85 d2                test   %edx %edx 
  0x00007ffff7dea3c4  75 03                jnz    $0x00007ffff7dea3c9 

550bacc8
7ffff7df1330
7ffff7ffad00
Block 143:
  0x00007ffff7ffad00  55                   push   %rbp %rsp -> %rsp 0xfffffff8(%rsp) 
  0x00007ffff7ffad01  48 89 e5             mov    %rsp -> %rbp 
  0x00007ffff7ffad04  41 56                push   %r14 %rsp -> %rsp 0xfffffff8(%rsp) 
  0x00007ffff7ffad06  41 55                push   %r13 %rsp -> %rsp 0xfffffff8(%rsp) 
  0x00007ffff7ffad08  41 54                push   %r12 %rsp -> %rsp 0xfffffff8(%rsp) 
  0x00007ffff7ffad0a  53                   push   %rbx %rsp -> %rsp 0xfffffff8(%rsp) 
  0x00007ffff7ffad0b  48 89 fb             mov    %rdi -> %rbx 
  0x00007ffff7ffad0e  48 83 ec 18          sub    $0x0000000000000018 %rsp -> %rsp 
  0x00007ffff7ffad12  48 85 ff             test   %rdi %rdi 
  0x00007ffff7ffad15  0f 84 c7 00 00 00    jz     $0x00007ffff7ffade2 

550bacec
Block 144:
  0x00007ffff7ffad1b  4c 8d 75 dc          lea    0xffffffdc(%rbp) -> %r14 
  0x00007ffff7ffad1f  44 8b 25 5a d3 ff ff mov    <rel> 0x00007ffff7ff8080 -> %r12d 
  0x00007ffff7ffad26  41 f6 c4 01          test   %r12l $0x01 
  0x00007ffff7ffad2a  0f 85 48 01 00 00    jnz    $0x00007ffff7ffae78 

550bad14
Block 145:
  0x00007ffff7ffad30  8b 05 4e d3 ff ff    mov    <rel> 0x00007ffff7ff8084 -> %eax 
  0x00007ffff7ffad36  89 45 dc             mov    %eax -> 0xffffffdc(%rbp) 
  0x00007ffff7ffad39  48 8b 05 68 d3 ff ff mov    <rel> 0x00007ffff7ff80a8 -> %rax 
  0x00007ffff7ffad40  48 89 03             mov    %rax -> (%rbx) 
  0x00007ffff7ffad43  8b 15 3b d3 ff ff    mov    <rel> 0x00007ffff7ff8084 -> %edx 
  0x00007ffff7ffad49  4c 8b 2d 50 d3 ff ff mov    <rel> 0x00007ffff7ff80a0 -> %r13 
  0x00007ffff7ffad50  83 fa 01             cmp    %edx $0x00000001 
  0x00007ffff7ffad53  0f 84 f7 00 00 00    jz     $0x00007ffff7ffae50 

550bad42
Block 146:
  0x00007ffff7ffae50  0f ae e8             lfence 
  0x00007ffff7ffae53  0f 31                rdtsc  -> %edx %eax 
  0x00007ffff7ffae55  49 89 d0             mov    %rdx -> %r8 
  0x00007ffff7ffae58  89 c0                mov    %eax -> %eax 
  0x00007ffff7ffae5a  49 c1 e0 20          shl    $0x0000000000000020 %r8 -> %r8 
  0x00007ffff7ffae5e  49 09 c0             or     %rax %r8 -> %r8 
  0x00007ffff7ffae61  48 8b 05 20 d2 ff ff mov    <rel> 0x00007ffff7ff8088 -> %rax 
  0x00007ffff7ffae68  49 39 c0             cmp    %r8 %rax 
  0x00007ffff7ffae6b  72 3e                jb     $0x00007ffff7ffaeab 

550bad94
Block 147:
  0x00007ffff7ffae6d  49 29 c0             sub    %rax %r8 -> %r8 
  0x00007ffff7ffae70  eb 9c                jmp    $0x00007ffff7ffae0e 
  0x00007ffff7ffae0e  4c 23 05 7b d2 ff ff and    <rel> 0x00007ffff7ff8090 %r8 -> %r8 
  0x00007ffff7ffae15  8b 15 7d d2 ff ff    mov    <rel> 0x00007ffff7ff8098 -> %edx 
  0x00007ffff7ffae1b  4c 89 c0             mov    %r8 -> %rax 
  0x00007ffff7ffae1e  48 0f af c2          imul   %rdx %rax -> %rax 
  0x00007ffff7ffae22  e9 46 ff ff ff       jmp    $0x00007ffff7ffad6d 
  0x00007ffff7ffad6d  8b 0d 29 d3 ff ff    mov    <rel> 0x00007ffff7ff809c -> %ecx 
  0x00007ffff7ffad73  44 3b 25 06 d3 ff ff cmp    %r12d <rel> 0x00007ffff7ff8080 
  0x00007ffff7ffad7a  75 a3                jnz    $0x00007ffff7ffad1f 

550badc8
Block 148:
  0x00007ffff7ffad1f  44 8b 25 5a d3 ff ff mov    <rel> 0x00007ffff7ff8080 -> %r12d 
  0x00007ffff7ffad26  41 f6 c4 01          test   %r12l $0x01 
  0x00007ffff7ffad2a  0f 85 48 01 00 00    jnz    $0x00007ffff7ffae78 

550bae44
550bad42
550bad94
550badc8
550bae44
550bad42
550bad94
550badc8
Block 149:
  0x00007ffff7ffad7c  4c 01 e8             add    %r13 %rax -> %rax 
  0x00007ffff7ffad7f  48 d3 e8             shr    %cl %rax -> %rax 
  0x00007ffff7ffad82  48 3d ff c9 9a 3b    cmp    %rax $0x000000003b9ac9ff 
  0x00007ffff7ffad88  48 89 c1             mov    %rax -> %rcx 
  0x00007ffff7ffad8b  0f 86 13 01 00 00    jbe    $0x00007ffff7ffaea4 

550bae6f
Block 150:
  0x00007ffff7ffaea4  31 d2                xor    %edx %edx -> %edx 
  0x00007ffff7ffaea6  e9 03 ff ff ff       jmp    $0x00007ffff7ffadae 
  0x00007ffff7ffadae  8b 45 dc             mov    0xffffffdc(%rbp) -> %eax 
  0x00007ffff7ffadb1  48 01 13             add    %rdx (%rbx) -> (%rbx) 
  0x00007ffff7ffadb4  48 89 4b 08          mov    %rcx -> 0x08(%rbx) 
  0x00007ffff7ffadb8  85 c0                test   %eax %eax 
  0x00007ffff7ffadba  0f 84 d5 00 00 00    jz     $0x00007ffff7ffae95 

550bae94
Block 151:
  0x00007ffff7ffadc0  48 89 c8             mov    %rcx -> %rax 
  0x00007ffff7ffadc3  48 ba cf f7 53 e3 a5 mov    $0x20c49ba5e353f7cf -> %rdx 
                      9b c4 20
  0x00007ffff7ffadcd  48 f7 ea             imul   %rdx %rax -> %rdx %rax 
  0x00007ffff7ffadd0  48 89 c8             mov    %rcx -> %rax 
  0x00007ffff7ffadd3  48 c1 f8 3f          sar    $0x000000000000003f %rax -> %rax 
  0x00007ffff7ffadd7  48 c1 fa 07          sar    $0x0000000000000007 %rdx -> %rdx 
  0x00007ffff7ffaddb  48 29 c2             sub    %rax %rdx -> %rdx 
  0x00007ffff7ffadde  48 89 53 08          mov    %rdx -> 0x08(%rbx) 
  0x00007ffff7ffade2  31 c0                xor    %eax %eax -> %eax 
  0x00007ffff7ffade4  48 85 f6             test   %rsi %rsi 
  0x00007ffff7ffade7  0f 85 92 00 00 00    jnz    $0x00007ffff7ffae7f 

550baeb8
Block 152:
  0x00007ffff7ffaded  48 83 c4 18          add    $0x0000000000000018 %rsp -> %rsp 
  0x00007ffff7ffadf1  5b                   pop    %rsp (%rsp) -> %rbx %rsp 
  0x00007ffff7ffadf2  41 5c                pop    %rsp (%rsp) -> %r12 %rsp 
  0x00007ffff7ffadf4  41 5d                pop    %rsp (%rsp) -> %r13 %rsp 
  0x00007ffff7ffadf6  41 5e                pop    %rsp (%rsp) -> %r14 %rsp 
  0x00007ffff7ffadf8  5d                   pop    %rsp (%rsp) -> %rbp %rsp 
  0x00007ffff7ffadf9  c3                   ret    %rsp (%rsp) -> %rsp 

401d59
Block 153:
  0x0000000000401d59  48 8b 55 d0          mov    0xffffffd0(%rbp) -> %rdx 
  0x0000000000401d5d  8b 45 dc             mov    0xffffffdc(%rbp) -> %eax 
  0x0000000000401d60  48 89 d6             mov    %rdx -> %rsi 
  0x0000000000401d63  89 c7                mov    %eax -> %edi 
  0x0000000000401d65  b8 00 00 00 00       mov    $0x00000000 -> %eax 
  0x0000000000401d6a  e8 50 00 00 00       call   $0x0000000000401dbf %rsp -> %rsp 0xfffffff8(%rsp) 
  0x0000000000401dbf  55                   push   %rbp %rsp -> %rsp 0xfffffff8(%rsp) 
  0x0000000000401dc0  48 89 e5             mov    %rsp -> %rbp 
  0x0000000000401dc3  48 83 ec 30          sub    $0x0000000000000030 %rsp -> %rsp 
  0x0000000000401dc7  89 7d dc             mov    %edi -> 0xffffffdc(%rbp) 
  0x0000000000401dca  48 89 75 d0          mov    %rsi -> 0xffffffd0(%rbp) 
  0x0000000000401dce  c7 45 f4 40 00 00 00 mov    $0x00000040 -> 0xfffffff4(%rbp) 
  0x0000000000401dd5  48 c7 45 e8 26 65 41 mov    $0x00416526 -> 0xffffffe8(%rbp) 
                      00
  0x0000000000401ddd  48 c7 05 18 80 21 00 mov    $0x0000000a -> <rel> 0x0000000000619e00 
                      0a 00 00 00
  0x0000000000401de8  83 7d dc 01          cmp    0xffffffdc(%rbp) $0x00000001 
  0x0000000000401dec  7e 0c                jle    $0x0000000000401dfa 

550baf18
Block 154:
  0x0000000000401dee  48 8b 45 d0          mov    0xffffffd0(%rbp) -> %rax 
  0x0000000000401df2  48 8b 40 08          mov    0x08(%rax) -> %rax 
  0x0000000000401df6  48 89 45 e8          mov    %rax -> 0xffffffe8(%rbp) 
  0x0000000000401dfa  83 7d dc 02          cmp    0xffffffdc(%rbp) $0x00000002 
  0x0000000000401dfe  7e 16                jle    $0x0000000000401e16 

550baf70
Block 155:
  0x0000000000401e00  48 8b 45 d0          mov    0xffffffd0(%rbp) -> %rax 
  0x0000000000401e04  48 83 c0 10          add    $0x0000000000000010 %rax -> %rax 
  0x0000000000401e08  48 8b 00             mov    (%rax) -> %rax 
  0x0000000000401e0b  48 89 c7             mov    %rax -> %rdi 
  0x0000000000401e0e  e8 7d eb ff ff       call   $0x0000000000400990 %rsp -> %rsp 0xfffffff8(%rsp) 
  0x0000000000400990  ff 25 02 87 21 00    jmp    <rel> 0x0000000000619098 

400996
Block 156:
  0x0000000000400996  68 10 00 00 00       push   $0x0000000000000010 %rsp -> %rsp 0xfffffff8(%rsp) 
  0x000000000040099b  e9 e0 fe ff ff       jmp    $0x0000000000400880 
  0x0000000000400880  ff 35 82 87 21 00    push   <rel> 0x0000000000619008 %rsp -> %rsp 0xfffffff8(%rsp) 
  0x0000000000400886  ff 25 84 87 21 00    jmp    <rel> 0x0000000000619010 

7ffff7df12e0
550b9219
550b92d4
550b92f4
550b9350
550b9408
550b9440
550b9440
550b9440
550b946c
550b94dc
550b9504
550b9600
550b961c
550b9638
550b9671
550b968c
550b96d4
550b971c
550b9738
550b975c
7ffff7debf05
550b97cc
550b97e8
550b9804
7ffff7debf34
550b9830
550b984c
7ffff7de4da6
550b988c
550b98a8
550b98c8
550b9600
550b961c
550b9638
550b9671
550b968c
550b96d4
550b971c
550b9738
550b975c
7ffff7debf05
550b97cc
550b97e8
550b9804
7ffff7debf34
550b9830
550b984c
7ffff7de4da6
550b988c
550b98a8
550b98c8
550b9600
550b961c
550b9638
550b9671
550b968c
550b96d4
550b971c
550b9738
550b975c
7ffff7debf05
550b97cc
550b97e8
550b9804
7ffff7debf34
550b9830
550b984c
7ffff7de4da6
550b988c
550b98a8
550b98c8
550b9600
550b961c
550b9638
550b9671
550b968c
550b96d4
550b971c
550b9738
550b975c
7ffff7debf05
550b97cc
550b97e8
550b9804
7ffff7debf34
550b9830
550b984c
7ffff7de4da6
550b988c
550b98a8
550b98c8
550b9600
550b961c
550b9638
550b9671
550b968c
550b96d4
550b98e8
550b9914
550ba6e0
550ba6fc
550b9980
550b99fc
550b9a18
550b9a3c
550b9a5d
550b9a8c
550b9abc
550b9ad8
550b9abc
550b9ad8
550b9abc
550b9ad8
550b9abc
550b9ad8
550b9abc
7ffff7de4b4b
550b9b10
550b9b2e
550b9b4c
550b9b68
550b9ba6
550b9abc
550b9ad8
550b9abc
550b9ad8
550b9abc
550b9ad8
550b9abc
550b9ad8
550b9abc
550b9ad8
550b9abc
550b9ad8
550b9abc
550b9ad8
550b9abc
550b9ad8
550b9abc
550b9ad8
550b9abc
550b9ad8
550b9abc
550b9ad8
550b9abc
7ffff7de4bd4
550b9bd4
7ffff7de531f
550b9c14
550b9c30
550b9c70
550b9c8c
7ffff7de57f8
550b9cec
550b9d08
550b9d24
550b9d40
550b9d5f
550b9d8c
550b9da8
7ffff7dea36c
550b9e00
550b9e2c
550b9e54
550b9e98
550b9eb4
550b9edc
7ffff7df1330
7ffff762d390
Block 157:
  0x00007ffff762d390  48 83 ec 08          sub    $0x0000000000000008 %rsp -> %rsp 
  0x00007ffff762d394  ba 0a 00 00 00       mov    $0x0000000a -> %edx 
  0x00007ffff762d399  31 f6                xor    %esi %esi -> %esi 
  0x00007ffff762d39b  e8 e0 43 00 00       call   $0x00007ffff7631780 %rsp -> %rsp 0xfffffff8(%rsp) 
  0x00007ffff7631780  48 8b 05 11 c6 37 00 mov    <rel> 0x00007ffff79add98 -> %rax 
  0x00007ffff7631787  31 c9                xor    %ecx %ecx -> %ecx 
  0x00007ffff7631789  64 4c 8b 00          mov    %fs:(%rax) -> %r8 
  0x00007ffff763178d  e9 3e 00 00 00       jmp    $0x00007ffff76317d0 
  0x00007ffff76317d0  41 57                push   %r15 %rsp -> %rsp 0xfffffff8(%rsp) 
  0x00007ffff76317d2  41 56                push   %r14 %rsp -> %rsp 0xfffffff8(%rsp) 
  0x00007ffff76317d4  45 31 d2             xor    %r10d %r10d -> %r10d 
  0x00007ffff76317d7  41 55                push   %r13 %rsp -> %rsp 0xfffffff8(%rsp) 
  0x00007ffff76317d9  41 54                push   %r12 %rsp -> %rsp 0xfffffff8(%rsp) 
  0x00007ffff76317db  49 89 fd             mov    %rdi -> %r13 
  0x00007ffff76317de  55                   push   %rbp %rsp -> %rsp 0xfffffff8(%rsp) 
  0x00007ffff76317df  53                   push   %rbx %rsp -> %rsp 0xfffffff8(%rsp) 
  0x00007ffff76317e0  31 db                xor    %ebx %ebx -> %ebx 
  0x00007ffff76317e2  49 89 f6             mov    %rsi -> %r14 
  0x00007ffff76317e5  48 83 ec 38          sub    $0x0000000000000038 %rsp -> %rsp 
  0x00007ffff76317e9  85 c9                test   %ecx %ecx 
  0x00007ffff76317eb  49 8b 40 08          mov    0x08(%r8) -> %rax 
  0x00007ffff76317ef  0f 85 36 03 00 00    jnz    $0x00007ffff7631b2b 

550bb008
Block 158:
  0x00007ffff76317f5  83 fa 24             cmp    %edx $0x00000024 
  0x00007ffff76317f8  0f 87 82 01 00 00    jnbe   $0x00007ffff7631980 

550bb070
Block 159:
  0x00007ffff76317fe  83 fa 01             cmp    %edx $0x00000001 
  0x00007ffff7631801  0f 84 79 01 00 00    jz     $0x00007ffff7631980 

550bb08c
Block 160:
  0x00007ffff7631807  49 0f be 45 00       movsx  0x00(%r13) -> %rax 
  0x00007ffff763180c  4d 8b 48 68          mov    0x68(%r8) -> %r9 
  0x00007ffff7631810  4d 89 ec             mov    %r13 -> %r12 
  0x00007ffff7631813  41 f6 44 41 01 20    test   0x01(%r9,%rax,2) $0x20 
  0x00007ffff7631819  49 89 c7             mov    %rax -> %r15 
  0x00007ffff763181c  74 16                jz     $0x00007ffff7631834 

550bb0a9
Block 161:
  0x00007ffff7631834  45 84 ff             test   %r15l %r15l 
  0x00007ffff7631837  0f 84 a3 03 00 00    jz     $0x00007ffff7631be0 

550bb0d4
Block 162:
  0x00007ffff763183d  41 80 ff 2d          cmp    %r15l $0x2d 
  0x00007ffff7631841  0f 84 42 03 00 00    jz     $0x00007ffff7631b89 

550bb0f0
Block 163:
  0x00007ffff7631847  41 80 ff 2b          cmp    %r15l $0x2b 
  0x00007ffff763184b  c7 44 24 1c 00 00 00 mov    $0x00000000 -> 0x1c(%rsp) 
                      00
  0x00007ffff7631853  0f 84 e4 01 00 00    jz     $0x00007ffff7631a3d 

550bb10c
Block 164:
  0x00007ffff7631859  41 80 ff 30          cmp    %r15l $0x30 
  0x00007ffff763185d  0f 84 ef 02 00 00    jz     $0x00007ffff7631b52 

550bb12c
Block 165:
  0x00007ffff7631863  85 d2                test   %edx %edx 
  0x00007ffff7631865  0f 84 34 01 00 00    jz     $0x00007ffff763199f 

550bb148
Block 166:
  0x00007ffff763186b  83 fa 0a             cmp    %edx $0x0000000a 
  0x00007ffff763186e  0f 84 2b 01 00 00    jz     $0x00007ffff763199f 

550bb164
Block 167:
  0x00007ffff763199f  4d 85 d2             test   %r10 %r10 
  0x00007ffff76319a2  b8 08 00 00 00       mov    $0x00000008 -> %eax 
  0x00007ffff76319a7  ba 0a 00 00 00       mov    $0x0000000a -> %edx 
  0x00007ffff76319ac  0f 84 c5 fe ff ff    jz     $0x00007ffff7631877 

550bb180
Block 168:
  0x00007ffff7631877  31 ed                xor    %ebp %ebp -> %ebp 
  0x00007ffff7631879  31 f6                xor    %esi %esi -> %esi 
  0x00007ffff763187b  48 8d 0d fe f1 13 00 lea    <rel> 0x00007ffff7770a80 -> %rcx 
  0x00007ffff7631882  48 98                cwde   %ax -> %rax 
  0x00007ffff7631884  45 84 ff             test   %r15l %r15l 
  0x00007ffff7631887  45 0f b6 cf          movzx  %r15l -> %r9d 
  0x00007ffff763188b  4d 89 e2             mov    %r12 -> %r10 
  0x00007ffff763188e  48 8b 3c c1          mov    (%rcx,%rax,8) -> %rdi 
  0x00007ffff7631892  48 8d 0d a7 f1 13 00 lea    <rel> 0x00007ffff7770a40 -> %rcx 
  0x00007ffff7631899  0f b6 04 01          movzx  (%rcx,%rax,1) -> %eax 
  0x00007ffff763189d  48 89 7c 24 20       mov    %rdi -> 0x20(%rsp) 
  0x00007ffff76318a2  88 44 24 08          mov    %al -> 0x08(%rsp) 
  0x00007ffff76318a6  0f 84 5f 01 00 00    jz     $0x00007ffff7631a0b 

550bb1a0
Block 169:
  0x00007ffff76318ac  4c 39 e6             cmp    %rsi %r12 
  0x00007ffff76318af  0f 84 56 01 00 00    jz     $0x00007ffff7631a0b 

550bb1e8
Block 170:
  0x00007ffff76318b5  48 63 ca             movsxd %edx -> %rcx 
  0x00007ffff76318b8  4c 89 64 24 28       mov    %r12 -> 0x28(%rsp) 
  0x00007ffff76318bd  48 8d 7d ff          lea    0xffffffff(%rbp) -> %rdi 
  0x00007ffff76318c1  49 89 cc             mov    %rcx -> %r12 
  0x00007ffff76318c4  41 8d 49 d0          lea    0xffffffd0(%r9) -> %ecx 
  0x00007ffff76318c8  45 31 db             xor    %r11d %r11d -> %r11d 
  0x00007ffff76318cb  31 c0                xor    %eax %eax -> %eax 
  0x00007ffff76318cd  48 89 7c 24 10       mov    %rdi -> 0x10(%rsp) 
  0x00007ffff76318d2  48 8b 7c 24 20       mov    0x20(%rsp) -> %rdi 
  0x00007ffff76318d7  80 f9 09             cmp    %cl $0x09 
  0x00007ffff76318da  76 6b                jbe    $0x00007ffff7631947 

550bb204
Block 171:
  0x00007ffff7631947  44 0f b6 c9          movzx  %cl -> %r9d 
  0x00007ffff763194b  41 39 d1             cmp    %r9d %edx 
  0x00007ffff763194e  0f 8d 34 01 00 00    jnl    $0x00007ffff7631a88 

550bb23c
Block 172:
  0x00007ffff7631954  48 39 c7             cmp    %rdi %rax 
  0x00007ffff7631957  72 17                jb     $0x00007ffff7631970 

550bb258
Block 173:
  0x00007ffff7631959  3a 4c 24 08          cmp    %cl 0x08(%rsp) 
  0x00007ffff763195d  0f 86 0d 01 00 00    jbe    $0x00007ffff7631a70 

550bb275
Block 174:
  0x00007ffff7631a70  49 0f af c4          imul   %r12 %rax -> %rax 
  0x00007ffff7631a74  0f b6 c9             movzx  %cl -> %ecx 
  0x00007ffff7631a77  48 01 c8             add    %rcx %rax -> %rax 
  0x00007ffff7631a7a  4c 89 d1             mov    %r10 -> %rcx 
  0x00007ffff7631a7d  e9 9e fe ff ff       jmp    $0x00007ffff7631920 
  0x00007ffff7631920  44 0f b6 49 01       movzx  0x01(%rcx) -> %r9d 
  0x00007ffff7631925  4c 8d 51 01          lea    0x01(%rcx) -> %r10 
  0x00007ffff7631929  45 84 c9             test   %r9l %r9l 
  0x00007ffff763192c  0f 84 56 01 00 00    jz     $0x00007ffff7631a88 

550bb290
Block 175:
  0x00007ffff7631a88  4c 8b 64 24 28       mov    0x28(%rsp) -> %r12 
  0x00007ffff7631a8d  4d 39 e2             cmp    %r10 %r12 
  0x00007ffff7631a90  0f 84 75 ff ff ff    jz     $0x00007ffff7631a0b 

550bb2bc
Block 176:
  0x00007ffff7631a96  4d 85 f6             test   %r14 %r14 
  0x00007ffff7631a99  74 03                jz     $0x00007ffff7631a9e 

550bb2d8
Block 177:
  0x00007ffff7631a9e  45 85 db             test   %r11d %r11d 
  0x00007ffff7631aa1  75 4d                jnz    $0x00007ffff7631af0 

550bb2f6
Block 178:
  0x00007ffff7631aa3  8b 54 24 1c          mov    0x1c(%rsp) -> %edx 
  0x00007ffff7631aa7  85 d2                test   %edx %edx 
  0x00007ffff7631aa9  0f 84 f1 00 00 00    jz     $0x00007ffff7631ba0 

550bb310
Block 179:
  0x00007ffff7631ba0  48 ba ff ff ff ff ff mov    $0x7fffffffffffffff -> %rdx 
                      ff ff 7f
  0x00007ffff7631baa  48 39 d0             cmp    %rax %rdx 
  0x00007ffff7631bad  0f 86 dd fd ff ff    jbe    $0x00007ffff7631990 

550bb32c
Block 180:
  0x00007ffff7631990  48 83 c4 38          add    $0x0000000000000038 %rsp -> %rsp 
  0x00007ffff7631994  5b                   pop    %rsp (%rsp) -> %rbx %rsp 
  0x00007ffff7631995  5d                   pop    %rsp (%rsp) -> %rbp %rsp 
  0x00007ffff7631996  41 5c                pop    %rsp (%rsp) -> %r12 %rsp 
  0x00007ffff7631998  41 5d                pop    %rsp (%rsp) -> %r13 %rsp 
  0x00007ffff763199a  41 5e                pop    %rsp (%rsp) -> %r14 %rsp 
  0x00007ffff763199c  41 5f                pop    %rsp (%rsp) -> %r15 %rsp 
  0x00007ffff763199e  c3                   ret    %rsp (%rsp) -> %rsp 

7ffff762d3a0
Block 181:
  0x00007ffff762d3a0  48 83 c4 08          add    $0x0000000000000008 %rsp -> %rsp 
  0x00007ffff762d3a4  c3                   ret    %rsp (%rsp) -> %rsp 

401e13
Block 182:
  0x0000000000401e13  89 45 f4             mov    %eax -> 0xfffffff4(%rbp) 
  0x0000000000401e16  83 7d dc 03          cmp    0xffffffdc(%rbp) $0x00000003 
  0x0000000000401e1a  7e 18                jle    $0x0000000000401e34 

550bb390
Block 183:
  0x0000000000401e34  8b 45 f4             mov    0xfffffff4(%rbp) -> %eax 
  0x0000000000401e37  89 45 f0             mov    %eax -> 0xfffffff0(%rbp) 
  0x0000000000401e3a  8b 45 f4             mov    0xfffffff4(%rbp) -> %eax 
  0x0000000000401e3d  c1 e0 14             shl    $0x00000014 %eax -> %eax 
  0x0000000000401e40  89 05 fa 7f 21 00    mov    %eax -> <rel> 0x0000000000619e40 
  0x0000000000401e46  8b 45 f0             mov    0xfffffff0(%rbp) -> %eax 
  0x0000000000401e49  c1 e0 14             shl    $0x00000014 %eax -> %eax 
  0x0000000000401e4c  89 05 06 80 21 00    mov    %eax -> <rel> 0x0000000000619e58 
  0x0000000000401e52  8b 45 f4             mov    0xfffffff4(%rbp) -> %eax 
  0x0000000000401e55  c1 e0 14             shl    $0x00000014 %eax -> %eax 
  0x0000000000401e58  89 05 12 80 21 00    mov    %eax -> <rel> 0x0000000000619e70 
  0x0000000000401e5e  b8 00 00 00 00       mov    $0x00000000 -> %eax 
  0x0000000000401e63  e8 43 ed ff ff       call   $0x0000000000400bab %rsp -> %rsp 0xfffffff8(%rsp) 
  0x0000000000400bab  55                   push   %rbp %rsp -> %rsp 0xfffffff8(%rsp) 
  0x0000000000400bac  48 89 e5             mov    %rsp -> %rbp 
  0x0000000000400baf  48 83 ec 10          sub    $0x0000000000000010 %rsp -> %rsp 
  0x0000000000400bb3  8b 05 0f 85 21 00    mov    <rel> 0x00000000006190c8 -> %eax 
  0x0000000000400bb9  83 f8 03             cmp    %eax $0x00000003 
  0x0000000000400bbc  7e 0a                jle    $0x0000000000400bc8 

550bb3ac
Block 184:
  0x0000000000400bbe  bf 80 62 41 00       mov    $0x00416280 -> %edi 
  0x0000000000400bc3  e8 e8 fc ff ff       call   $0x00000000004008b0 %rsp -> %rsp 0xfffffff8(%rsp) 
  0x00000000004008b0  ff 25 72 87 21 00    jmp    <rel> 0x0000000000619028 

4008b6
Block 185:
  0x00000000004008b6  68 02 00 00 00       push   $0x0000000000000002 %rsp -> %rsp 0xfffffff8(%rsp) 
  0x00000000004008bb  e9 c0 ff ff ff       jmp    $0x0000000000400880 
  0x0000000000400880  ff 35 82 87 21 00    push   <rel> 0x0000000000619008 %rsp -> %rsp 0xfffffff8(%rsp) 
  0x0000000000400886  ff 25 84 87 21 00    jmp    <rel> 0x0000000000619010 

7ffff7df12e0
550b9219
550b92d4
550b92f4
550b9350
550b9408
550b9440
550b9440
550b9440
550b946c
550b94dc
550b9504
550b9600
550b961c
550b9638
550b9671
550b968c
550b96d4
550b971c
550b9738
550b975c
7ffff7debf05
550b97cc
550b97e8
550b9804
7ffff7debf34
550b9830
550b984c
7ffff7de4da6
550b988c
550b98a8
550b98c8
550b9600
550b961c
550b9638
550b9671
550b968c
550b96d4
550b971c
550b9738
550b975c
7ffff7debf05
550b97cc
550b97e8
550b9804
7ffff7debf34
550b9830
550b984c
7ffff7de4da6
550b988c
550b98a8
550b98c8
550b9600
550b961c
550b9638
550b9671
550b968c
550b96d4
550b971c
550b9738
550b975c
7ffff7debf05
550b97cc
550b97e8
550b9804
7ffff7debf34
550b9830
550b984c
7ffff7de4da6
550b988c
550b98a8
550b98c8
550b9600
550b961c
550b9638
550b9671
550b968c
550b96d4
550b971c
550b9738
550b975c
7ffff7debf05
550b97cc
550b97e8
550b9804
7ffff7debf34
550b9830
550b984c
7ffff7de4da6
550b988c
550b98a8
550b98c8
550b9600
550b961c
550b9638
550b9671
550b968c
550b96d4
550b98e8
550b9914
550ba6e0
550ba6fc
550b9980
550b99fc
550b9a18
550b9a3c
550b9a5d
550b9a8c
550b9abc
550b9ad8
550b9abc
550b9ad8
550b9abc
550b9ad8
550b9abc
550b9ad8
550b9abc
7ffff7de4b4b
550b9b10
550b9b2e
550b9b4c
550b9b68
550b9ba6
550b9abc
550b9ad8
550b9abc
550b9ad8
550b9abc
550b9ad8
550b9abc
550b9ad8
550b9abc
550b9ad8
550b9abc
550b9ad8
550b9abc
550b9ad8
550b9abc
550b9ad8
550b9abc
550b9ad8
550b9abc
550b9ad8
550b9abc
550b9ad8
550b9abc
7ffff7de4bd4
550b9bd4
7ffff7de531f
550b9c14
550b9c30
550ba71c
7ffff7de57f8
550b9cec
550b9d08
550b9d24
550b9d40
550b9d5f
550b9d8c
550b9da8
7ffff7dea36c
550b9e00
550b9e2c
550b9e54
550b9e98
550b9eb4
550b9edc
7ffff7df1330
7ffff7666d30
Block 186:
  0x00007ffff7666d30  41 54                push   %r12 %rsp -> %rsp 0xfffffff8(%rsp) 
  0x00007ffff7666d32  55                   push   %rbp %rsp -> %rsp 0xfffffff8(%rsp) 
  0x00007ffff7666d33  49 89 fc             mov    %rdi -> %r12 
  0x00007ffff7666d36  53                   push   %rbx %rsp -> %rsp 0xfffffff8(%rsp) 
  0x00007ffff7666d37  e8 24 af 01 00       call   $0x00007ffff7681c60 %rsp -> %rsp 0xfffffff8(%rsp) 
  0x00007ffff7681c60  66 45 0f ef c0       data16 pxor   %xmm8 %xmm8 -> %xmm8 
  0x00007ffff7681c65  66 45 0f ef c9       data16 pxor   %xmm9 %xmm9 -> %xmm9 
  0x00007ffff7681c6a  66 45 0f ef d2       data16 pxor   %xmm10 %xmm10 -> %xmm10 
  0x00007ffff7681c6f  66 45 0f ef db       data16 pxor   %xmm11 %xmm11 -> %xmm11 
  0x00007ffff7681c74  48 89 f8             mov    %rdi -> %rax 
  0x00007ffff7681c77  48 89 f9             mov    %rdi -> %rcx 
  0x00007ffff7681c7a  48 81 e1 ff 0f 00 00 and    $0x0000000000000fff %rcx -> %rcx 
  0x00007ffff7681c81  48 81 f9 cf 0f 00 00 cmp    %rcx $0x0000000000000fcf 
  0x00007ffff7681c88  77 66                jnbe   $0x00007ffff7681cf0 

550bb454
Block 187:
  0x00007ffff7681c8a  f3 44 0f 6f 20       movdqu (%rax) -> %xmm12 
  0x00007ffff7681c8f  66 45 0f 74 e0       data16 pcmpeqb %xmm8 %xmm12 -> %xmm12 
  0x00007ffff7681c94  66 41 0f d7 d4       data16 pmovmskb %xmm12 -> %edx 
  0x00007ffff7681c99  85 d2                test   %edx %edx 
  0x00007ffff7681c9b  74 04                jz     $0x00007ffff7681ca1 

550bb4a4
Block 188:
  0x00007ffff7681c9d  0f bc c2             bsf    %edx -> %eax 
  0x00007ffff7681ca0  c3                   ret    %rsp (%rsp) -> %rsp 

7ffff7666d3c
Block 189:
  0x00007ffff7666d3c  48 8b 2d a5 8b 34 00 mov    <rel> 0x00007ffff79af8e8 -> %rbp 
  0x00007ffff7666d43  48 89 c3             mov    %rax -> %rbx 
  0x00007ffff7666d46  8b 45 00             mov    0x00(%rbp) -> %eax 
  0x00007ffff7666d49  48 89 ef             mov    %rbp -> %rdi 
  0x00007ffff7666d4c  25 00 80 00 00       and    $0x00008000 %eax -> %eax 
  0x00007ffff7666d51  75 68                jnz    $0x00007ffff7666dbb 

550bb4e4
Block 190:
  0x00007ffff7666d53  48 8b 95 88 00 00 00 mov    0x00000088(%rbp) -> %rdx 
  0x00007ffff7666d5a  64 4c 8b 04 25 10 00 mov    %fs:0x10 -> %r8 
                      00 00
  0x00007ffff7666d63  4c 3b 42 08          cmp    %r8 0x08(%rdx) 
  0x00007ffff7666d67  0f 84 13 01 00 00    jz     $0x00007ffff7666e80 

550bb514
Block 191:
  0x00007ffff7666d6d  be 01 00 00 00       mov    $0x00000001 -> %esi 
  0x00007ffff7666d72  83 3d 7b cf 34 00 00 cmp    <rel> 0x00007ffff79b3cf4 $0x00000000 
  0x00007ffff7666d79  74 08                jz     $0x00007ffff7666d83 

550bb544
Block 192:
  0x00007ffff7666d83  0f b1 32             cmpxchg %esi (%rdx) %eax -> (%rdx) %eax 
  0x00007ffff7666d86  74 16                jz     $0x00007ffff7666d9e 

550bb580
Block 193:
  0x00007ffff7666d9e  48 8b 85 88 00 00 00 mov    0x00000088(%rbp) -> %rax 
  0x00007ffff7666da5  48 8b 95 88 00 00 00 mov    0x00000088(%rbp) -> %rdx 
  0x00007ffff7666dac  48 8b 3d 35 8b 34 00 mov    <rel> 0x00007ffff79af8e8 -> %rdi 
  0x00007ffff7666db3  4c 89 40 08          mov    %r8 -> 0x08(%rax) 
  0x00007ffff7666db7  83 42 04 01          add    $0x00000001 0x04(%rdx) -> 0x04(%rdx) 
  0x00007ffff7666dbb  8b 87 c0 00 00 00    mov    0x000000c0(%rdi) -> %eax 
  0x00007ffff7666dc1  85 c0                test   %eax %eax 
  0x00007ffff7666dc3  0f 85 a7 00 00 00    jnz    $0x00007ffff7666e70 

550bb59c
Block 194:
  0x00007ffff7666dc9  c7 87 c0 00 00 00 ff mov    $0xffffffff -> 0x000000c0(%rdi) 
                      ff ff ff
  0x00007ffff7666dd3  48 8b 87 d8 00 00 00 mov    0x000000d8(%rdi) -> %rax 
  0x00007ffff7666dda  48 89 da             mov    %rbx -> %rdx 
  0x00007ffff7666ddd  4c 89 e6             mov    %r12 -> %rsi 
  0x00007ffff7666de0  ff 50 38             call   0x38(%rax) %rsp -> %rsp 0xfffffff8(%rsp) 

7ffff7670340
Block 195:
  0x00007ffff7670340  41 57                push   %r15 %rsp -> %rsp 0xfffffff8(%rsp) 
  0x00007ffff7670342  41 56                push   %r14 %rsp -> %rsp 0xfffffff8(%rsp) 
  0x00007ffff7670344  31 c0                xor    %eax %eax -> %eax 
  0x00007ffff7670346  41 55                push   %r13 %rsp -> %rsp 0xfffffff8(%rsp) 
  0x00007ffff7670348  41 54                push   %r12 %rsp -> %rsp 0xfffffff8(%rsp) 
  0x00007ffff767034a  55                   push   %rbp %rsp -> %rsp 0xfffffff8(%rsp) 
  0x00007ffff767034b  53                   push   %rbx %rsp -> %rsp 0xfffffff8(%rsp) 
  0x00007ffff767034c  48 89 d3             mov    %rdx -> %rbx 
  0x00007ffff767034f  48 83 ec 08          sub    $0x0000000000000008 %rsp -> %rsp 
  0x00007ffff7670353  48 85 d2             test   %rdx %rdx 
  0x00007ffff7670356  74 63                jz     $0x00007ffff76703bb 

550bb61c
Block 196:
  0x00007ffff7670358  8b 07                mov    (%rdi) -> %eax 
  0x00007ffff767035a  48 89 fd             mov    %rdi -> %rbp 
  0x00007ffff767035d  49 89 f5             mov    %rsi -> %r13 
  0x00007ffff7670360  25 00 0a 00 00       and    $0x00000a00 %eax -> %eax 
  0x00007ffff7670365  3d 00 0a 00 00       cmp    %eax $0x00000a00 
  0x00007ffff767036a  0f 84 c8 00 00 00    jz     $0x00007ffff7670438 

550bb648
Block 197:
  0x00007ffff7670370  48 8b 4f 30          mov    0x30(%rdi) -> %rcx 
  0x00007ffff7670374  48 8b 7f 28          mov    0x28(%rdi) -> %rdi 
  0x00007ffff7670378  48 39 f9             cmp    %rcx %rdi 
  0x00007ffff767037b  76 53                jbe    $0x00007ffff76703d0 

550bb673
Block 198:
  0x00007ffff76703d0  49 89 d4             mov    %rdx -> %r12 
  0x00007ffff76703d3  45 31 f6             xor    %r14d %r14d -> %r14d 
  0x00007ffff76703d6  4d 01 e6             add    %r12 %r14 -> %r14 
  0x00007ffff76703d9  74 da                jz     $0x00007ffff76703b5 

550bb694
Block 199:
  0x00007ffff76703db  48 8b 85 d8 00 00 00 mov    0x000000d8(%rbp) -> %rax 
  0x00007ffff76703e2  be ff ff ff ff       mov    $0xffffffff -> %esi 
  0x00007ffff76703e7  48 89 ef             mov    %rbp -> %rdi 
  0x00007ffff76703ea  ff 50 18             call   0x18(%rax) %rsp -> %rsp 0xfffffff8(%rsp) 

7ffff7671500
Block 200:
  0x00007ffff7671500  41 54                push   %r12 %rsp -> %rsp 0xfffffff8(%rsp) 
  0x00007ffff7671502  55                   push   %rbp %rsp -> %rsp 0xfffffff8(%rsp) 
  0x00007ffff7671503  53                   push   %rbx %rsp -> %rsp 0xfffffff8(%rsp) 
  0x00007ffff7671504  8b 07                mov    (%rdi) -> %eax 
  0x00007ffff7671506  48 89 fb             mov    %rdi -> %rbx 
  0x00007ffff7671509  a8 08                test   %al $0x08 
  0x00007ffff767150b  0f 85 87 01 00 00    jnz    $0x00007ffff7671698 

550bb6e8
Block 201:
  0x00007ffff7671511  f6 c4 08             test   %ah $0x08 
  0x00007ffff7671514  89 f5                mov    %esi -> %ebp 
  0x00007ffff7671516  74 50                jz     $0x00007ffff7671568 

550bb708
Block 202:
  0x00007ffff7671568  48 83 7f 20 00       cmp    0x20(%rdi) $0x0000000000000000 
  0x00007ffff767156d  0f 84 45 01 00 00    jz     $0x00007ffff76716b8 

550bb724
Block 203:
  0x00007ffff76716b8  48 89 df             mov    %rbx -> %rdi 
  0x00007ffff76716bb  e8 70 0c 00 00       call   $0x00007ffff7672330 %rsp -> %rsp 0xfffffff8(%rsp) 
  0x00007ffff7672330  48 83 7f 38 00       cmp    0x38(%rdi) $0x0000000000000000 
  0x00007ffff7672335  74 09                jz     $0x00007ffff7672340 

550bb740
Block 204:
  0x00007ffff7672340  41 54                push   %r12 %rsp -> %rsp 0xfffffff8(%rsp) 
  0x00007ffff7672342  55                   push   %rbp %rsp -> %rsp 0xfffffff8(%rsp) 
  0x00007ffff7672343  53                   push   %rbx %rsp -> %rsp 0xfffffff8(%rsp) 
  0x00007ffff7672344  8b 07                mov    (%rdi) -> %eax 
  0x00007ffff7672346  48 89 fb             mov    %rdi -> %rbx 
  0x00007ffff7672349  a8 02                test   %al $0x02 
  0x00007ffff767234b  74 0a                jz     $0x00007ffff7672357 

550bb768
Block 205:
  0x00007ffff7672357  48 8b 83 d8 00 00 00 mov    0x000000d8(%rbx) -> %rax 
  0x00007ffff767235e  48 89 df             mov    %rbx -> %rdi 
  0x00007ffff7672361  ff 50 68             call   0x68(%rax) %rsp -> %rsp 0xfffffff8(%rsp) 

7ffff76648a0
Block 206:
  0x00007ffff76648a0  41 54                push   %r12 %rsp -> %rsp 0xfffffff8(%rsp) 
  0x00007ffff76648a2  55                   push   %rbp %rsp -> %rsp 0xfffffff8(%rsp) 
  0x00007ffff76648a3  48 89 fd             mov    %rdi -> %rbp 
  0x00007ffff76648a6  53                   push   %rbx %rsp -> %rsp 0xfffffff8(%rsp) 
  0x00007ffff76648a7  48 81 ec 90 00 00 00 sub    $0x0000000000000090 %rsp -> %rsp 
  0x00007ffff76648ae  8b 47 70             mov    0x70(%rdi) -> %eax 
  0x00007ffff76648b1  85 c0                test   %eax %eax 
  0x00007ffff76648b3  78 43                js     $0x00007ffff76648f8 

550bb7bc
Block 207:
  0x00007ffff76648b5  48 8b 87 d8 00 00 00 mov    0x000000d8(%rdi) -> %rax 
  0x00007ffff76648bc  48 89 e6             mov    %rsp -> %rsi 
  0x00007ffff76648bf  ff 90 90 00 00 00    call   0x00000090(%rax) %rsp -> %rsp 0xfffffff8(%rsp) 

7ffff766fcf0
Block 208:
  0x00007ffff766fcf0  48 89 f2             mov    %rsi -> %rdx 
  0x00007ffff766fcf3  8b 77 70             mov    0x70(%rdi) -> %esi 
  0x00007ffff766fcf6  bf 01 00 00 00       mov    $0x00000001 -> %edi 
  0x00007ffff766fcfb  e9 a0 75 07 00       jmp    $0x00007ffff76e72a0 
  0x00007ffff76e72a0  83 ff 01             cmp    %edi $0x00000001 
  0x00007ffff76e72a3  89 f0                mov    %esi -> %eax 
  0x00007ffff76e72a5  77 31                jnbe   $0x00007ffff76e72d8 

550bb818
Block 209:
  0x00007ffff76e72a7  48 63 f8             movsxd %eax -> %rdi 
  0x00007ffff76e72aa  48 89 d6             mov    %rdx -> %rsi 
  0x00007ffff76e72ad  b8 05 00 00 00       mov    $0x00000005 -> %eax 
  0x00007ffff76e72b2  0f 05                syscall -> %rcx 
  0x00007ffff76e72b4  48 3d 00 f0 ff ff    cmp    %rax $0xfffffffffffff000 
  0x00007ffff76e72ba  77 04                jnbe   $0x00007ffff76e72c0 

55139008
Block 210:
  0x00007ffff76e72bc  f3 c3                ret    %rsp (%rsp) -> %rsp 

7ffff76648c5
Block 211:
  0x00007ffff76648c5  85 c0                test   %eax %eax 
  0x00007ffff76648c7  78 2f                js     $0x00007ffff76648f8 

550bb858
Block 212:
  0x00007ffff76648c9  8b 44 24 18          mov    0x18(%rsp) -> %eax 
  0x00007ffff76648cd  25 00 f0 00 00       and    $0x0000f000 %eax -> %eax 
  0x00007ffff76648d2  3d 00 20 00 00       cmp    %eax $0x00002000 
  0x00007ffff76648d7  74 77                jz     $0x00007ffff7664950 

550bb874
Block 213:
  0x00007ffff76648d9  48 8b 5c 24 38       mov    0x38(%rsp) -> %rbx 
  0x00007ffff76648de  48 85 db             test   %rbx %rbx 
  0x00007ffff76648e1  7e 15                jle    $0x00007ffff76648f8 

550bb898
Block 214:
  0x00007ffff76648e3  48 8d b3 ff 0f 00 00 lea    0x00000fff(%rbx) -> %rsi 
  0x00007ffff76648ea  48 81 e6 00 f0 ff ff and    $0xfffffffffffff000 %rsi -> %rsi 
  0x00007ffff76648f1  eb 0f                jmp    $0x00007ffff7664902 
  0x00007ffff7664902  45 31 c9             xor    %r9d %r9d -> %r9d 
  0x00007ffff7664905  31 ff                xor    %edi %edi -> %edi 
  0x00007ffff7664907  41 b8 ff ff ff ff    mov    $0xffffffff -> %r8d 
  0x00007ffff766490d  b9 22 00 00 00       mov    $0x00000022 -> %ecx 
  0x00007ffff7664912  ba 03 00 00 00       mov    $0x00000003 -> %edx 
  0x00007ffff7664917  e8 94 d1 08 00       call   $0x00007ffff76f1ab0 %rsp -> %rsp 0xfffffff8(%rsp) 
  0x00007ffff76f1ab0  49 89 ca             mov    %rcx -> %r10 
  0x00007ffff76f1ab3  b8 09 00 00 00       mov    $0x00000009 -> %eax 
  0x00007ffff76f1ab8  0f 05                syscall -> %rcx 

550bb8b4
550b3bc0
Block 215:
  0x00007ffff76f1aba  48 3d 01 f0 ff ff    cmp    %rax $0xfffffffffffff001 
  0x00007ffff76f1ac0  73 01                jnb    $0x00007ffff76f1ac3 

550bb8fc
Block 216:
  0x00007ffff76f1ac2  c3                   ret    %rsp (%rsp) -> %rsp 

7ffff766491c
Block 217:
  0x00007ffff766491c  48 83 f8 ff          cmp    %rax $0xffffffffffffffff 
  0x00007ffff7664920  74 19                jz     $0x00007ffff766493b 

550bb935
Block 218:
  0x00007ffff7664922  48 8d 14 18          lea    (%rax,%rbx,1) -> %rdx 
  0x00007ffff7664926  48 89 c6             mov    %rax -> %rsi 
  0x00007ffff7664929  b9 01 00 00 00       mov    $0x00000001 -> %ecx 
  0x00007ffff766492e  48 89 ef             mov    %rbp -> %rdi 
  0x00007ffff7664931  e8 8a d9 00 00       call   $0x00007ffff76722c0 %rsp -> %rsp 0xfffffff8(%rsp) 
  0x00007ffff76722c0  55                   push   %rbp %rsp -> %rsp 0xfffffff8(%rsp) 
  0x00007ffff76722c1  53                   push   %rbx %rsp -> %rsp 0xfffffff8(%rsp) 
  0x00007ffff76722c2  48 89 fb             mov    %rdi -> %rbx 
  0x00007ffff76722c5  48 89 f5             mov    %rsi -> %rbp 
  0x00007ffff76722c8  48 83 ec 18          sub    $0x0000000000000018 %rsp -> %rsp 
  0x00007ffff76722cc  48 8b 7f 38          mov    0x38(%rdi) -> %rdi 
  0x00007ffff76722d0  8b 03                mov    (%rbx) -> %eax 
  0x00007ffff76722d2  48 85 ff             test   %rdi %rdi 
  0x00007ffff76722d5  74 04                jz     $0x00007ffff76722db 

550bb950
Block 219:
  0x00007ffff76722db  48 89 53 40          mov    %rdx -> 0x40(%rbx) 
  0x00007ffff76722df  89 c2                mov    %eax -> %edx 
  0x00007ffff76722e1  83 c8 01             or     $0x00000001 %eax -> %eax 
  0x00007ffff76722e4  83 e2 fe             and    $0xfffffffe %edx -> %edx 
  0x00007ffff76722e7  85 c9                test   %ecx %ecx 
  0x00007ffff76722e9  48 89 6b 38          mov    %rbp -> 0x38(%rbx) 
  0x00007ffff76722ed  0f 45 c2             cmovnz %edx %eax -> %eax 
  0x00007ffff76722f0  89 03                mov    %eax -> (%rbx) 
  0x00007ffff76722f2  48 83 c4 18          add    $0x0000000000000018 %rsp -> %rsp 
  0x00007ffff76722f6  5b                   pop    %rsp (%rsp) -> %rbx %rsp 
  0x00007ffff76722f7  5d                   pop    %rsp (%rsp) -> %rbp %rsp 
  0x00007ffff76722f8  c3                   ret    %rsp (%rsp) -> %rsp 

7ffff7664936
Block 220:
  0x00007ffff7664936  b8 01 00 00 00       mov    $0x00000001 -> %eax 
  0x00007ffff766493b  48 81 c4 90 00 00 00 add    $0x0000000000000090 %rsp -> %rsp 
  0x00007ffff7664942  5b                   pop    %rsp (%rsp) -> %rbx %rsp 
  0x00007ffff7664943  5d                   pop    %rsp (%rsp) -> %rbp %rsp 
  0x00007ffff7664944  41 5c                pop    %rsp (%rsp) -> %r12 %rsp 
  0x00007ffff7664946  c3                   ret    %rsp (%rsp) -> %rsp 

7ffff7672364
Block 221:
  0x00007ffff7672364  83 f8 ff             cmp    %eax $0xffffffff 
  0x00007ffff7672367  74 07                jz     $0x00007ffff7672370 

550bb9f0
Block 222:
  0x00007ffff7672369  5b                   pop    %rsp (%rsp) -> %rbx %rsp 
  0x00007ffff767236a  5d                   pop    %rsp (%rsp) -> %rbp %rsp 
  0x00007ffff767236b  41 5c                pop    %rsp (%rsp) -> %r12 %rsp 
  0x00007ffff767236d  c3                   ret    %rsp (%rsp) -> %rsp 

7ffff76716c0
Block 223:
  0x00007ffff76716c0  48 8b 53 38          mov    0x38(%rbx) -> %rdx 
  0x00007ffff76716c4  8b 03                mov    (%rbx) -> %eax 
  0x00007ffff76716c6  48 89 53 18          mov    %rdx -> 0x18(%rbx) 
  0x00007ffff76716ca  48 89 53 08          mov    %rdx -> 0x08(%rbx) 
  0x00007ffff76716ce  48 89 53 10          mov    %rdx -> 0x10(%rbx) 
  0x00007ffff76716d2  e9 a0 fe ff ff       jmp    $0x00007ffff7671577 
  0x00007ffff7671577  f6 c4 01             test   %ah $0x01 
  0x00007ffff767157a  0f 85 e0 00 00 00    jnz    $0x00007ffff7671660 

550bba29
Block 224:
  0x00007ffff7671580  48 8b 4b 40          mov    0x40(%rbx) -> %rcx 
  0x00007ffff7671584  48 39 d1             cmp    %rcx %rdx 
  0x00007ffff7671587  0f 84 c3 00 00 00    jz     $0x00007ffff7671650 

550bba54
Block 225:
  0x00007ffff767158d  48 8b 73 10          mov    0x10(%rbx) -> %rsi 
  0x00007ffff7671591  48 89 4b 30          mov    %rcx -> 0x30(%rbx) 
  0x00007ffff7671595  89 c1                mov    %eax -> %ecx 
  0x00007ffff7671597  48 89 73 08          mov    %rsi -> 0x08(%rbx) 
  0x00007ffff767159b  80 cd 08             or     $0x08 %ch -> %ch 
  0x00007ffff767159e  48 89 73 18          mov    %rsi -> 0x18(%rbx) 
  0x00007ffff76715a2  48 89 53 28          mov    %rdx -> 0x28(%rbx) 
  0x00007ffff76715a6  89 0b                mov    %ecx -> (%rbx) 
  0x00007ffff76715a8  8b 8b c0 00 00 00    mov    0x000000c0(%rbx) -> %ecx 
  0x00007ffff76715ae  48 89 d6             mov    %rdx -> %rsi 
  0x00007ffff76715b1  48 89 53 20          mov    %rdx -> 0x20(%rbx) 
  0x00007ffff76715b5  85 c9                test   %ecx %ecx 
  0x00007ffff76715b7  0f 8f 6c ff ff ff    jnle   $0x00007ffff7671529 

550bba70
Block 226:
  0x00007ffff76715bd  a9 02 02 00 00       test   %eax $0x00000202 
  0x00007ffff76715c2  0f 84 61 ff ff ff    jz     $0x00007ffff7671529 

550bbab0
Block 227:
  0x00007ffff7671529  83 fd ff             cmp    %ebp $0xffffffff 
  0x00007ffff767152c  0f 84 0e 01 00 00    jz     $0x00007ffff7671640 

550bbacc
Block 228:
  0x00007ffff7671640  48 89 df             mov    %rbx -> %rdi 
  0x00007ffff7671643  48 29 f2             sub    %rsi %rdx -> %rdx 
  0x00007ffff7671646  5b                   pop    %rsp (%rsp) -> %rbx %rsp 
  0x00007ffff7671647  5d                   pop    %rsp (%rsp) -> %rbp %rsp 
  0x00007ffff7671648  41 5c                pop    %rsp (%rsp) -> %r12 %rsp 
  0x00007ffff767164a  e9 11 fb ff ff       jmp    $0x00007ffff7671160 
  0x00007ffff7671160  31 c0                xor    %eax %eax -> %eax 
  0x00007ffff7671162  48 85 d2             test   %rdx %rdx 
  0x00007ffff7671165  75 09                jnz    $0x00007ffff7671170 

550bbaea
Block 229:
  0x00007ffff7671167  c3                   ret    %rsp (%rsp) -> %rsp 

7ffff76703ed
Block 230:
  0x00007ffff76703ed  83 f8 ff             cmp    %eax $0xffffffff 
  0x00007ffff76703f0  0f 84 9a 00 00 00    jz     $0x00007ffff7670490 

550bbb28
Block 231:
  0x00007ffff76703f6  48 8b 4d 40          mov    0x40(%rbp) -> %rcx 
  0x00007ffff76703fa  48 2b 4d 38          sub    0x38(%rbp) %rcx -> %rcx 
  0x00007ffff76703fe  31 d2                xor    %edx %edx -> %edx 
  0x00007ffff7670400  48 83 f9 7f          cmp    %rcx $0x000000000000007f 
  0x00007ffff7670404  76 08                jbe    $0x00007ffff767040e 

550bbb44
Block 232:
  0x00007ffff7670406  4c 89 e0             mov    %r12 -> %rax 
  0x00007ffff7670409  31 d2                xor    %edx %edx -> %edx 
  0x00007ffff767040b  48 f7 f1             div    %rcx %rdx %rax -> %rdx %rax 
  0x00007ffff767040e  4d 89 e6             mov    %r12 -> %r14 
  0x00007ffff7670411  49 29 d6             sub    %rdx %r14 -> %r14 
  0x00007ffff7670414  0f 85 ae 00 00 00    jnz    $0x00007ffff76704c8 

550bbb6b
Block 233:
  0x00007ffff767041a  4d 85 e4             test   %r12 %r12 
  0x00007ffff767041d  74 96                jz     $0x00007ffff76703b5 

550bbb8c
Block 234:
  0x00007ffff767041f  4b 8d 74 35 00       lea    0x00(%r13,%r14,1) -> %rsi 
  0x00007ffff7670424  4c 89 e2             mov    %r12 -> %rdx 
  0x00007ffff7670427  48 89 ef             mov    %rbp -> %rdi 
  0x00007ffff767042a  e8 e1 1f 00 00       call   $0x00007ffff7672410 %rsp -> %rsp 0xfffffff8(%rsp) 
  0x00007ffff7672410  31 c0                xor    %eax %eax -> %eax 
  0x00007ffff7672412  48 85 d2             test   %rdx %rdx 
  0x00007ffff7672415  41 56                push   %r14 %rsp -> %rsp 0xfffffff8(%rsp) 
  0x00007ffff7672417  41 55                push   %r13 %rsp -> %rsp 0xfffffff8(%rsp) 
  0x00007ffff7672419  49 89 d5             mov    %rdx -> %r13 
  0x00007ffff767241c  41 54                push   %r12 %rsp -> %rsp 0xfffffff8(%rsp) 
  0x00007ffff767241e  55                   push   %rbp %rsp -> %rsp 0xfffffff8(%rsp) 
  0x00007ffff767241f  53                   push   %rbx %rsp -> %rsp 0xfffffff8(%rsp) 
  0x00007ffff7672420  0f 84 98 00 00 00    jz     $0x00007ffff76724be 

550bbba8
Block 235:
  0x00007ffff7672426  49 89 fc             mov    %rdi -> %r12 
  0x00007ffff7672429  49 89 f6             mov    %rsi -> %r14 
  0x00007ffff767242c  48 89 d5             mov    %rdx -> %rbp 
  0x00007ffff767242f  90                   nop    
  0x00007ffff7672430  49 8b 7c 24 28       mov    0x28(%r12) -> %rdi 
  0x00007ffff7672435  49 8b 5c 24 30       mov    0x30(%r12) -> %rbx 
  0x00007ffff767243a  48 39 df             cmp    %rdi %rbx 
  0x00007ffff767243d  73 36                jnb    $0x00007ffff7672475 

550bbbe7
Block 236:
  0x00007ffff767243f  48 29 fb             sub    %rdi %rbx -> %rbx 
  0x00007ffff7672442  48 39 dd             cmp    %rbp %rbx 
  0x00007ffff7672445  48 0f 46 dd          cmovbe %rbp %rbx -> %rbx 
  0x00007ffff7672449  48 83 fb 14          cmp    %rbx $0x0000000000000014 
  0x00007ffff767244d  77 51                jnbe   $0x00007ffff76724a0 

550bbc14
Block 237:
  0x00007ffff767244f  48 85 db             test   %rbx %rbx 
  0x00007ffff7672452  74 1e                jz     $0x00007ffff7672472 

550bbc3b
Block 238:
  0x00007ffff7672454  31 c0                xor    %eax %eax -> %eax 
  0x00007ffff7672456  41 0f b6 14 06       movzx  (%r14,%rax,1) -> %edx 
  0x00007ffff767245b  88 14 07             mov    %dl -> (%rdi,%rax,1) 
  0x00007ffff767245e  48 83 c0 01          add    $0x0000000000000001 %rax -> %rax 
  0x00007ffff7672462  48 39 d8             cmp    %rax %rbx 
  0x00007ffff7672465  75 ef                jnz    $0x00007ffff7672456 

550bbc54
Block 239:
  0x00007ffff7672456  41 0f b6 14 06       movzx  (%r14,%rax,1) -> %edx 
  0x00007ffff767245b  88 14 07             mov    %dl -> (%rdi,%rax,1) 
  0x00007ffff767245e  48 83 c0 01          add    $0x0000000000000001 %rax -> %rax 
  0x00007ffff7672462  48 39 d8             cmp    %rax %rbx 
  0x00007ffff7672465  75 ef                jnz    $0x00007ffff7672456 

550bbc78
550bbc78
550bbc78
550bbc78
550bbc78
550bbc78
550bbc78
550bbc78
Block 240:
  0x00007ffff7672467  48 01 df             add    %rbx %rdi -> %rdi 
  0x00007ffff767246a  49 01 de             add    %rbx %r14 -> %r14 
  0x00007ffff767246d  49 89 7c 24 28       mov    %rdi -> 0x28(%r12) 
  0x00007ffff7672472  48 29 dd             sub    %rbx %rbp -> %rbp 
  0x00007ffff7672475  48 85 ed             test   %rbp %rbp 
  0x00007ffff7672478  74 3e                jz     $0x00007ffff76724b8 

550bbc9c
Block 241:
  0x00007ffff76724b8  4c 89 e8             mov    %r13 -> %rax 
  0x00007ffff76724bb  48 29 e8             sub    %rbp %rax -> %rax 
  0x00007ffff76724be  5b                   pop    %rsp (%rsp) -> %rbx %rsp 
  0x00007ffff76724bf  5d                   pop    %rsp (%rsp) -> %rbp %rsp 
  0x00007ffff76724c0  41 5c                pop    %rsp (%rsp) -> %r12 %rsp 
  0x00007ffff76724c2  41 5d                pop    %rsp (%rsp) -> %r13 %rsp 
  0x00007ffff76724c4  41 5e                pop    %rsp (%rsp) -> %r14 %rsp 
  0x00007ffff76724c6  c3                   ret    %rsp (%rsp) -> %rsp 

7ffff767042f
Block 242:
  0x00007ffff767042f  49 29 c4             sub    %rax %r12 -> %r12 
  0x00007ffff7670432  eb 81                jmp    $0x00007ffff76703b5 
  0x00007ffff76703b5  48 89 d8             mov    %rbx -> %rax 
  0x00007ffff76703b8  4c 29 e0             sub    %r12 %rax -> %rax 
  0x00007ffff76703bb  48 83 c4 08          add    $0x0000000000000008 %rsp -> %rsp 
  0x00007ffff76703bf  5b                   pop    %rsp (%rsp) -> %rbx %rsp 
  0x00007ffff76703c0  5d                   pop    %rsp (%rsp) -> %rbp %rsp 
  0x00007ffff76703c1  41 5c                pop    %rsp (%rsp) -> %r12 %rsp 
  0x00007ffff76703c3  41 5d                pop    %rsp (%rsp) -> %r13 %rsp 
  0x00007ffff76703c5  41 5e                pop    %rsp (%rsp) -> %r14 %rsp 
  0x00007ffff76703c7  41 5f                pop    %rsp (%rsp) -> %r15 %rsp 
  0x00007ffff76703c9  c3                   ret    %rsp (%rsp) -> %rsp 

7ffff7666de3
Block 243:
  0x00007ffff7666de3  48 39 c3             cmp    %rbx %rax 
  0x00007ffff7666de6  0f 85 8d 00 00 00    jnz    $0x00007ffff7666e79 

550bbd18
Block 244:
  0x00007ffff7666dec  48 8b 3d f5 8a 34 00 mov    <rel> 0x00007ffff79af8e8 -> %rdi 
  0x00007ffff7666df3  48 8b 47 28          mov    0x28(%rdi) -> %rax 
  0x00007ffff7666df7  48 3b 47 30          cmp    %rax 0x30(%rdi) 
  0x00007ffff7666dfb  0f 83 8f 00 00 00    jnb    $0x00007ffff7666e90 

550bbd34
Block 245:
  0x00007ffff7666e01  48 8d 50 01          lea    0x01(%rax) -> %rdx 
  0x00007ffff7666e05  48 89 57 28          mov    %rdx -> 0x28(%rdi) 
  0x00007ffff7666e09  c6 00 0a             mov    $0x0a -> (%rax) 
  0x00007ffff7666e0c  48 83 c3 01          add    $0x0000000000000001 %rbx -> %rbx 
  0x00007ffff7666e10  b8 ff ff ff 7f       mov    $0x7fffffff -> %eax 
  0x00007ffff7666e15  48 81 fb ff ff ff 7f cmp    %rbx $0x000000007fffffff 
  0x00007ffff7666e1c  48 0f 47 d8          cmovnbe %rax %rbx -> %rbx 
  0x00007ffff7666e20  f7 45 00 00 80 00 00 test   0x00(%rbp) $0x00008000 
  0x00007ffff7666e27  75 3f                jnz    $0x00007ffff7666e68 

550bbd5c
Block 246:
  0x00007ffff7666e29  48 8b 95 88 00 00 00 mov    0x00000088(%rbp) -> %rdx 
  0x00007ffff7666e30  83 6a 04 01          sub    $0x00000001 0x04(%rdx) -> 0x04(%rdx) 
  0x00007ffff7666e34  75 32                jnz    $0x00007ffff7666e68 

550bbd98
Block 247:
  0x00007ffff7666e36  48 c7 42 08 00 00 00 mov    $0x00000000 -> 0x08(%rdx) 
                      00
  0x00007ffff7666e3e  83 3d af ce 34 00 00 cmp    <rel> 0x00007ffff79b3cf4 $0x00000000 
  0x00007ffff7666e45  74 07                jz     $0x00007ffff7666e4e 

550bbdb8
Block 248:
  0x00007ffff7666e4e  ff 0a                dec    (%rdx) -> (%rdx) 
  0x00007ffff7666e50  74 16                jz     $0x00007ffff7666e68 

550bbdf8
Block 249:
  0x00007ffff7666e68  89 d8                mov    %ebx -> %eax 
  0x00007ffff7666e6a  5b                   pop    %rsp (%rsp) -> %rbx %rsp 
  0x00007ffff7666e6b  5d                   pop    %rsp (%rsp) -> %rbp %rsp 
  0x00007ffff7666e6c  41 5c                pop    %rsp (%rsp) -> %r12 %rsp 
  0x00007ffff7666e6e  c3                   ret    %rsp (%rsp) -> %rsp 

400bc8
Block 250:
  0x0000000000400bc8  c7 45 fc 00 00 00 00 mov    $0x00000000 -> 0xfffffffc(%rbp) 
  0x0000000000400bcf  e9 11 01 00 00       jmp    $0x0000000000400ce5 
  0x0000000000400ce5  83 7d fc 02          cmp    0xfffffffc(%rbp) $0x00000002 
  0x0000000000400ce9  0f 8e e5 fe ff ff    jle    $0x0000000000400bd4 

550bbe34
Block 251:
  0x0000000000400bd4  8b 45 fc             mov    0xfffffffc(%rbp) -> %eax 
  0x0000000000400bd7  48 63 d0             movsxd %eax -> %rdx 
  0x0000000000400bda  48 89 d0             mov    %rdx -> %rax 
  0x0000000000400bdd  48 01 c0             add    %rax %rax -> %rax 
  0x0000000000400be0  48 01 d0             add    %rdx %rax -> %rax 
  0x0000000000400be3  48 c1 e0 03          shl    $0x0000000000000003 %rax -> %rax 
  0x0000000000400be7  48 05 40 9e 61 00    add    $0x0000000000619e40 %rax -> %rax 
  0x0000000000400bed  8b 00                mov    (%rax) -> %eax 
  0x0000000000400bef  89 45 f4             mov    %eax -> 0xfffffff4(%rbp) 
  0x0000000000400bf2  8b 45 fc             mov    0xfffffffc(%rbp) -> %eax 
  0x0000000000400bf5  48 63 d0             movsxd %eax -> %rdx 
  0x0000000000400bf8  48 89 d0             mov    %rdx -> %rax 
  0x0000000000400bfb  48 01 c0             add    %rax %rax -> %rax 
  0x0000000000400bfe  48 01 d0             add    %rdx %rax -> %rax 
  0x0000000000400c01  48 c1 e0 03          shl    $0x0000000000000003 %rax -> %rax 
  0x0000000000400c05  48 05 40 9e 61 00    add    $0x0000000000619e40 %rax -> %rax 
  0x0000000000400c0b  ba 18 00 00 00       mov    $0x00000018 -> %edx 
  0x0000000000400c10  be 00 00 00 00       mov    $0x00000000 -> %esi 
  0x0000000000400c15  48 89 c7             mov    %rax -> %rdi 
  0x0000000000400c18  e8 c3 fc ff ff       call   $0x00000000004008e0 %rsp -> %rsp 0xfffffff8(%rsp) 
  0x00000000004008e0  ff 25 5a 87 21 00    jmp    <rel> 0x0000000000619040 

4008e6
Block 252:
  0x00000000004008e6  68 05 00 00 00       push   $0x0000000000000005 %rsp -> %rsp 0xfffffff8(%rsp) 
  0x00000000004008eb  e9 90 ff ff ff       jmp    $0x0000000000400880 
  0x0000000000400880  ff 35 82 87 21 00    push   <rel> 0x0000000000619008 %rsp -> %rsp 0xfffffff8(%rsp) 
  0x0000000000400886  ff 25 84 87 21 00    jmp    <rel> 0x0000000000619010 

7ffff7df12e0
550b9219
550b92d4
550b92f4
550b9350
550b9408
550b9440
550b9440
550b9440
550b9440
550b9440
550b946c
550b94dc
550b9504
550b9600
550b961c
550b9638
550b9671
550b968c
550b96d4
550b971c
550b9738
550b975c
7ffff7debf05
550b97cc
550b97e8
550b9804
7ffff7debf34
550b9830
550b984c
7ffff7de4da6
550b988c
550b98a8
550b98c8
550b9600
550b961c
550b9638
550b9671
550b968c
550b96d4
550b971c
550b9738
550b975c
7ffff7debf05
550b97cc
550b97e8
550b9804
7ffff7debf34
550b9830
550b984c
7ffff7de4da6
550b988c
550b98a8
550b98c8
550b9600
550b961c
550b9638
550b9671
550b968c
550b96d4
550b971c
550b9738
550b975c
7ffff7debf05
550b97cc
550b97e8
550b9804
7ffff7debf34
550b9830
550b984c
7ffff7de4da6
550b988c
550b98a8
550b98c8
550b9600
550b961c
550b9638
550b9671
550b968c
550b96d4
550b971c
550b9738
550b975c
7ffff7debf05
550b97cc
550b97e8
550b9804
7ffff7debf34
550b9830
550b984c
7ffff7de4da6
550b988c
550b98a8
550b98c8
550b9600
550b961c
550b9638
550b9671
550b968c
550b96d4
550b98e8
550b9914
550b9980
550b99fc
550b9a18
550b9a3c
550b9a5d
550b9a8c
550b9abc
550b9ad8
550b9abc
550b9ad8
550b9abc
550b9ad8
550b9abc
550b9ad8
550b9abc
550b9ad8
550b9abc
550b9ad8
550b9abc
7ffff7de4b4b
550b9b10
550b9b2e
550b9b4c
550b9b68
550b9ba6
550b9abc
550b9ad8
550b9abc
550b9ad8
550b9abc
550b9ad8
550b9abc
550b9ad8
550b9abc
550b9ad8
550b9abc
550b9ad8
550b9abc
550b9ad8
550b9abc
550b9ad8
550b9abc
550b9ad8
550b9abc
550b9ad8
550b9abc
550b9ad8
550b9abc
7ffff7de4bd4
550b9bd4
7ffff7de531f
550b9c14
550b9c30
550b9c70
550b9c8c
7ffff7de57f8
550b9cec
550b9d08
550b9d24
550b9d40
550b9d5f
550b9d8c
550b9da8
7ffff7dea36c
550b9e00
550b9e2c
550b9e54
550b9e98
550b9eb4
7ffff7685720
Block 253:
  0x00007ffff7685720  83 3d 59 e1 32 00 00 cmp    <rel> 0x00007ffff79b3880 $0x00000000 
  0x00007ffff7685727  75 05                jnz    $0x00007ffff768572e 

550bbee4
Block 254:
  0x00007ffff768572e  48 8d 05 5b 00 00 00 lea    <rel> 0x00007ffff7685790 -> %rax 
  0x00007ffff7685735  f7 05 81 e1 32 00 00 test   <rel> 0x00007ffff79b38c0 $0x00000400 
                      04 00 00
  0x00007ffff768573f  74 07                jz     $0x00007ffff7685748 

550bbf1c
Block 255:
  0x00007ffff7685748  c3                   ret    %rsp (%rsp) -> %rsp 

7ffff7dea452
550bacc8
7ffff7df1330
7ffff7685790
Block 256:
  0x00007ffff7685790  66 44 0f 6e c6       data16 movd   %esi -> %xmm8 
  0x00007ffff7685795  48 89 f8             mov    %rdi -> %rax 
  0x00007ffff7685798  66 45 0f 60 c0       data16 punpcklbw %xmm8 %xmm8 -> %xmm8 
  0x00007ffff768579d  66 45 0f 61 c0       data16 punpcklwd %xmm8 %xmm8 -> %xmm8 
  0x00007ffff76857a2  66 45 0f 70 c0 00    data16 pshufd %xmm8 $0x00 -> %xmm8 
  0x00007ffff76857a8  48 83 fa 40          cmp    %rdx $0x0000000000000040 
  0x00007ffff76857ac  77 32                jnbe   $0x00007ffff76857e0 

550bbf7c
Block 257:
  0x00007ffff76857ae  48 83 fa 10          cmp    %rdx $0x0000000000000010 
  0x00007ffff76857b2  0f 86 9a 00 00 00    jbe    $0x00007ffff7685852 

550bbfac
Block 258:
  0x00007ffff76857b8  48 83 fa 20          cmp    %rdx $0x0000000000000020 
  0x00007ffff76857bc  f3 44 0f 7f 07       movdqu %xmm8 -> (%rdi) 
  0x00007ffff76857c1  f3 44 0f 7f 44 17 f0 movdqu %xmm8 -> 0xfffffff0(%rdi,%rdx,1) 
  0x00007ffff76857c8  77 06                jnbe   $0x00007ffff76857d0 

550bbfc8
Block 259:
  0x00007ffff76857ca  f3 c3                ret    %rsp (%rsp) -> %rsp 

400c1d
Block 260:
  0x0000000000400c1d  8b 45 fc             mov    0xfffffffc(%rbp) -> %eax 
  0x0000000000400c20  48 63 d0             movsxd %eax -> %rdx 
  0x0000000000400c23  48 89 d0             mov    %rdx -> %rax 
  0x0000000000400c26  48 01 c0             add    %rax %rax -> %rax 
  0x0000000000400c29  48 01 d0             add    %rdx %rax -> %rax 
  0x0000000000400c2c  48 c1 e0 03          shl    $0x0000000000000003 %rax -> %rax 
  0x0000000000400c30  48 8d 90 40 9e 61 00 lea    0x00619e40(%rax) -> %rdx 
  0x0000000000400c37  8b 45 f4             mov    0xfffffff4(%rbp) -> %eax 
  0x0000000000400c3a  89 02                mov    %eax -> (%rdx) 
  0x0000000000400c3c  8b 45 f4             mov    0xfffffff4(%rbp) -> %eax 
  0x0000000000400c3f  05 00 00 10 00       add    $0x00100000 %eax -> %eax 
  0x0000000000400c44  48 98                cwde   %ax -> %rax 
  0x0000000000400c46  48 89 c7             mov    %rax -> %rdi 
  0x0000000000400c49  e8 12 fd ff ff       call   $0x0000000000400960 %rsp -> %rsp 0xfffffff8(%rsp) 
  0x0000000000400960  ff 25 1a 87 21 00    jmp    <rel> 0x0000000000619080 

400966
Block 261:
  0x0000000000400966  68 0d 00 00 00       push   $0x000000000000000d %rsp -> %rsp 0xfffffff8(%rsp) 
  0x000000000040096b  e9 10 ff ff ff       jmp    $0x0000000000400880 
  0x0000000000400880  ff 35 82 87 21 00    push   <rel> 0x0000000000619008 %rsp -> %rsp 0xfffffff8(%rsp) 
  0x0000000000400886  ff 25 84 87 21 00    jmp    <rel> 0x0000000000619010 

7ffff7df12e0
550b9219
550b92d4
550b92f4
550b9350
550b9408
550b9440
550b9440
550b9440
550b9440
550b9440
550b946c
550b94dc
550b9504
550b9600
550b961c
550b9638
550b9671
550b968c
550b96d4
550b971c
550b9738
550b975c
7ffff7debf05
550b97cc
550b97e8
550b9804
7ffff7debf34
550b9830
550b984c
7ffff7de4da6
550b988c
550b98a8
550b98c8
550b9600
550b961c
550b9638
550b9671
550b968c
550b96d4
550b971c
550b9738
550b975c
7ffff7debf05
550b97cc
550b97e8
550b9804
7ffff7debf34
550b9830
550b984c
7ffff7de4da6
550b988c
550b98a8
550b98c8
550b9600
550b961c
550b9638
550b9671
550b968c
550b96d4
550b971c
550b9738
550b975c
7ffff7debf05
550b97cc
550b97e8
550b9804
7ffff7debf34
550b9830
550b984c
7ffff7de4da6
550b988c
550b98a8
550b98c8
550b9600
550b961c
550b9638
550b9671
550b968c
550b96d4
550b971c
550b9738
550b975c
7ffff7debf05
550b97cc
550b97e8
550b9804
7ffff7debf34
550b9830
550b984c
7ffff7de4da6
550b988c
550b98a8
550b98c8
550b9600
550b961c
550b9638
550b9671
550b968c
550b96d4
550b98e8
550b9914
550ba6e0
550ba6fc
550b9980
550b99fc
550b9a18
550b9a3c
550b9a5d
550b9a8c
550b9abc
550b9ad8
550b9abc
550b9ad8
550b9abc
550b9ad8
550b9abc
550b9ad8
550b9abc
550b9ad8
550b9abc
550b9ad8
550b9abc
7ffff7de4b4b
550b9b10
550b9b2e
550b9b4c
550b9b68
550b9ba6
550b9abc
550b9ad8
550b9abc
550b9ad8
550b9abc
550b9ad8
550b9abc
550b9ad8
550b9abc
550b9ad8
550b9abc
550b9ad8
550b9abc
550b9ad8
550b9abc
550b9ad8
550b9abc
550b9ad8
550b9abc
550b9ad8
550b9abc
550b9ad8
550b9abc
7ffff7de4bd4
550b9bd4
7ffff7de531f
550b9c14
550b9c30
550b9c70
550b9c8c
7ffff7de57f8
550b9cec
550b9d08
550b9d24
550b9d40
550b9d5f
550b9d8c
550b9da8
7ffff7dea36c
550b9e00
550b9e2c
550b9e54
550b9e98
550b9eb4
550b9edc
7ffff7df1330
7ffff767a0f0
Block 262:
  0x00007ffff767a0f0  55                   push   %rbp %rsp -> %rsp 0xfffffff8(%rsp) 
  0x00007ffff767a0f1  53                   push   %rbx %rsp -> %rsp 0xfffffff8(%rsp) 
  0x00007ffff767a0f2  48 83 ec 08          sub    $0x0000000000000008 %rsp -> %rsp 
  0x00007ffff767a0f6  48 8b 05 bb 3d 33 00 mov    <rel> 0x00007ffff79adeb8 -> %rax 
  0x00007ffff767a0fd  48 8b 00             mov    (%rax) -> %rax 
  0x00007ffff767a100  48 85 c0             test   %rax %rax 
  0x00007ffff767a103  0f 85 97 00 00 00    jnz    $0x00007ffff767a1a0 

550bc09c
Block 263:
  0x00007ffff767a109  48 8b 05 40 3c 33 00 mov    <rel> 0x00007ffff79add50 -> %rax 
  0x00007ffff767a110  48 89 fd             mov    %rdi -> %rbp 
  0x00007ffff767a113  64 48 8b 18          mov    %fs:(%rax) -> %rbx 
  0x00007ffff767a117  48 85 db             test   %rbx %rbx 
  0x00007ffff767a11a  0f 84 90 00 00 00    jz     $0x00007ffff767a1b0 

550bc0c8
Block 264:
  0x00007ffff767a1b0  31 f6                xor    %esi %esi -> %esi 
  0x00007ffff767a1b2  e8 09 a5 ff ff       call   $0x00007ffff76746c0 %rsp -> %rsp 0xfffffff8(%rsp) 
  0x00007ffff76746c0  55                   push   %rbp %rsp -> %rsp 0xfffffff8(%rsp) 
  0x00007ffff76746c1  53                   push   %rbx %rsp -> %rsp 0xfffffff8(%rsp) 
  0x00007ffff76746c2  49 89 f8             mov    %rdi -> %r8 
  0x00007ffff76746c5  48 89 f3             mov    %rsi -> %rbx 
  0x00007ffff76746c8  48 83 ec 08          sub    $0x0000000000000008 %rsp -> %rsp 
  0x00007ffff76746cc  48 83 3d 1c c4 33 00 cmp    <rel> 0x00007ffff79b0af0 $0x0000000000000000 
                      00
  0x00007ffff76746d4  0f 84 e6 00 00 00    jz     $0x00007ffff76747c0 

550bc0ff
Block 265:
  0x00007ffff76747c0  48 8b 05 b9 c2 33 00 mov    <rel> 0x00007ffff79b0a80 -> %rax 
  0x00007ffff76747c7  4c 89 c5             mov    %r8 -> %rbp 
  0x00007ffff76747ca  48 85 c0             test   %rax %rax 
  0x00007ffff76747cd  0f 85 b4 00 00 00    jnz    $0x00007ffff7674887 

550bc154
Block 266:
  0x00007ffff76747d3  48 8b 05 06 9a 33 00 mov    <rel> 0x00007ffff79ae1e0 -> %rax 
  0x00007ffff76747da  48 85 c0             test   %rax %rax 
  0x00007ffff76747dd  0f 85 9d 00 00 00    jnz    $0x00007ffff7674880 

550bc17c
Block 267:
  0x00007ffff76747e3  48 8b 15 9e 99 33 00 mov    <rel> 0x00007ffff79ae188 -> %rdx 
  0x00007ffff76747ea  48 39 15 e7 99 33 00 cmp    <rel> 0x00007ffff79ae1d8 %rdx 
  0x00007ffff76747f1  72 79                jb     $0x00007ffff767486c 

550bc1a0
Block 268:
  0x00007ffff76747f3  0f 1f 44 00 00       nop    0x00(%rax,%rax,1) 
  0x00007ffff76747f8  48 83 e8 01          sub    $0x0000000000000001 %rax -> %rax 
  0x00007ffff76747fc  48 39 d0             cmp    %rax %rdx 
  0x00007ffff76747ff  0f 83 f1 00 00 00    jnb    $0x00007ffff76748f6 

550bc1e4
Block 269:
  0x00007ffff76748f6  48 8d 4a 01          lea    0x01(%rdx) -> %rcx 
  0x00007ffff76748fa  48 89 d0             mov    %rdx -> %rax 
  0x00007ffff76748fd  64 83 3c 25 18 00 00 cmp    %fs:0x18 $0x00000000 
                      00 00
  0x00007ffff7674906  74 01                jz     $0x00007ffff7674909 

550bc204
Block 270:
  0x00007ffff7674909  48 0f b1 0d 77 98 33 cmpxchg %rcx <rel> 0x00007ffff79ae188 %rax -> <rel> 0x00007ffff79ae188 %rax 
                      00
  0x00007ffff7674911  48 39 d0             cmp    %rax %rdx 
  0x00007ffff7674914  74 3b                jz     $0x00007ffff7674951 

550bc248
Block 271:
  0x00007ffff7674951  48 8b 35 70 98 33 00 mov    <rel> 0x00007ffff79ae1c8 -> %rsi 
  0x00007ffff7674958  48 8d bd b8 08 00 00 lea    0x000008b8(%rbp) -> %rdi 
  0x00007ffff767495f  e8 5c f9 ff ff       call   $0x00007ffff76742c0 %rsp -> %rsp 0xfffffff8(%rsp) 
  0x00007ffff76742c0  48 8b 05 71 9b 33 00 mov    <rel> 0x00007ffff79ade38 -> %rax 
  0x00007ffff76742c7  41 54                push   %r12 %rsp -> %rsp 0xfffffff8(%rsp) 
  0x00007ffff76742c9  48 01 fe             add    %rdi %rsi -> %rsi 
  0x00007ffff76742cc  55                   push   %rbp %rsp -> %rsp 0xfffffff8(%rsp) 
  0x00007ffff76742cd  53                   push   %rbx %rsp -> %rsp 0xfffffff8(%rsp) 
  0x00007ffff76742ce  48 8b 58 18          mov    0x18(%rax) -> %rbx 
  0x00007ffff76742d2  48 83 eb 01          sub    $0x0000000000000001 %rbx -> %rbx 
  0x00007ffff76742d6  48 81 fe ff 7f 00 00 cmp    %rsi $0x0000000000007fff 
  0x00007ffff76742dd  0f 86 f5 00 00 00    jbe    $0x00007ffff76743d8 

550bc280
Block 272:
  0x00007ffff76742e3  48 81 fe 00 00 00 04 cmp    %rsi $0x0000000004000000 
  0x00007ffff76742ea  0f 87 f8 00 00 00    jnbe   $0x00007ffff76743e8 

550bc2d8
Block 273:
  0x00007ffff76742f0  48 8b 3d 99 c7 33 00 mov    <rel> 0x00007ffff79b0a90 -> %rdi 
  0x00007ffff76742f7  48 01 de             add    %rbx %rsi -> %rsi 
  0x00007ffff76742fa  48 f7 d3             not    %rbx -> %rbx 
  0x00007ffff76742fd  48 21 f3             and    %rsi %rbx -> %rbx 
  0x00007ffff7674300  48 85 ff             test   %rdi %rdi 
  0x00007ffff7674303  74 70                jz     $0x00007ffff7674375 

550bc2f4
Block 274:
  0x00007ffff7674375  45 31 c9             xor    %r9d %r9d -> %r9d 
  0x00007ffff7674378  31 d2                xor    %edx %edx -> %edx 
  0x00007ffff767437a  31 ff                xor    %edi %edi -> %edi 
  0x00007ffff767437c  41 b8 ff ff ff ff    mov    $0xffffffff -> %r8d 
  0x00007ffff7674382  b9 22 40 00 00       mov    $0x00004022 -> %ecx 
  0x00007ffff7674387  be 00 00 00 08       mov    $0x08000000 -> %esi 
  0x00007ffff767438c  e8 1f d7 07 00       call   $0x00007ffff76f1ab0 %rsp -> %rsp 0xfffffff8(%rsp) 
  0x00007ffff76f1ab0  49 89 ca             mov    %rcx -> %r10 
  0x00007ffff76f1ab3  b8 09 00 00 00       mov    $0x00000009 -> %eax 
  0x00007ffff76f1ab8  0f 05                syscall -> %rcx 

550bc320
550b3bc0
550bb8fc
7ffff7674391
Block 275:
  0x00007ffff7674391  48 83 f8 ff          cmp    %rax $0xffffffffffffffff 
  0x00007ffff7674395  0f 84 85 00 00 00    jz     $0x00007ffff7674420 

550bc35c
Block 276:
  0x00007ffff767439b  48 8d a8 ff ff ff 03 lea    0x03ffffff(%rax) -> %rbp 
  0x00007ffff76743a2  48 81 e5 00 00 00 fc and    $0xfffffffffc000000 %rbp -> %rbp 
  0x00007ffff76743a9  49 89 ec             mov    %rbp -> %r12 
  0x00007ffff76743ac  49 29 c4             sub    %rax %r12 -> %r12 
  0x00007ffff76743af  75 57                jnz    $0x00007ffff7674408 

550bc378
Block 277:
  0x00007ffff7674408  48 89 c7             mov    %rax -> %rdi 
  0x00007ffff767440b  4c 89 e6             mov    %r12 -> %rsi 
  0x00007ffff767440e  e8 cd d6 07 00       call   $0x00007ffff76f1ae0 %rsp -> %rsp 0xfffffff8(%rsp) 
  0x00007ffff76f1ae0  b8 0b 00 00 00       mov    $0x0000000b -> %eax 
  0x00007ffff76f1ae5  0f 05                syscall -> %rcx 

550bc3a0
550b3bc0
Block 278:
  0x00007ffff76f1ae7  48 3d 01 f0 ff ff    cmp    %rax $0xfffffffffffff001 
  0x00007ffff76f1aed  73 01                jnb    $0x00007ffff76f1af0 

550bc3c8
Block 279:
  0x00007ffff76f1aef  c3                   ret    %rsp (%rsp) -> %rsp 

7ffff7674413
Block 280:
  0x00007ffff7674413  48 8d bd 00 00 00 04 lea    0x04000000(%rbp) -> %rdi 
  0x00007ffff767441a  eb a3                jmp    $0x00007ffff76743bf 
  0x00007ffff76743bf  be 00 00 00 04       mov    $0x04000000 -> %esi 
  0x00007ffff76743c4  4c 29 e6             sub    %r12 %rsi -> %rsi 
  0x00007ffff76743c7  e8 14 d7 07 00       call   $0x00007ffff76f1ae0 %rsp -> %rsp 0xfffffff8(%rsp) 
  0x00007ffff76f1ae0  b8 0b 00 00 00       mov    $0x0000000b -> %eax 
  0x00007ffff76f1ae5  0f 05                syscall -> %rcx 

550bc400
550b3bc0
550bc3c8
7ffff76743cc
Block 281:
  0x00007ffff76743cc  e9 69 ff ff ff       jmp    $0x00007ffff767433a 
  0x00007ffff767433a  ba 03 00 00 00       mov    $0x00000003 -> %edx 
  0x00007ffff767433f  48 89 de             mov    %rbx -> %rsi 
  0x00007ffff7674342  48 89 ef             mov    %rbp -> %rdi 
  0x00007ffff7674345  e8 c6 d7 07 00       call   $0x00007ffff76f1b10 %rsp -> %rsp 0xfffffff8(%rsp) 
  0x00007ffff76f1b10  b8 0a 00 00 00       mov    $0x0000000a -> %eax 
  0x00007ffff76f1b15  0f 05                syscall -> %rcx 

550bc430
550b3bc0
Block 282:
  0x00007ffff76f1b17  48 3d 01 f0 ff ff    cmp    %rax $0xfffffffffffff001 
  0x00007ffff76f1b1d  73 01                jnb    $0x00007ffff76f1b20 

550bc45c
Block 283:
  0x00007ffff76f1b1f  c3                   ret    %rsp (%rsp) -> %rsp 

7ffff767434a
Block 284:
  0x00007ffff767434a  85 c0                test   %eax %eax 
  0x00007ffff767434c  0f 85 fe 00 00 00    jnz    $0x00007ffff7674450 

550bc494
Block 285:
  0x00007ffff7674352  48 89 5d 10          mov    %rbx -> 0x10(%rbp) 
  0x00007ffff7674356  48 89 5d 18          mov    %rbx -> 0x18(%rbp) 
  0x00007ffff767435a  90                   nop    
  0x00007ffff767435b  48 89 e8             mov    %rbp -> %rax 
  0x00007ffff767435e  5b                   pop    %rsp (%rsp) -> %rbx %rsp 
  0x00007ffff767435f  5d                   pop    %rsp (%rsp) -> %rbp %rsp 
  0x00007ffff7674360  41 5c                pop    %rsp (%rsp) -> %r12 %rsp 
  0x00007ffff7674362  c3                   ret    %rsp (%rsp) -> %rsp 

7ffff7674964
Block 286:
  0x00007ffff7674964  48 85 c0             test   %rax %rax 
  0x00007ffff7674967  49 89 c1             mov    %rax -> %r9 
  0x00007ffff767496a  0f 84 9b 01 00 00    jz     $0x00007ffff7674b0b 

550bc4d8
Block 287:
  0x00007ffff7674970  49 8d 51 20          lea    0x20(%r9) -> %rdx 
  0x00007ffff7674974  49 8d 49 78          lea    0x78(%r9) -> %rcx 
  0x00007ffff7674978  49 8d b1 68 08 00 00 lea    0x00000868(%r9) -> %rsi 
  0x00007ffff767497f  49 89 11             mov    %rdx -> (%r9) 
  0x00007ffff7674982  66 0f 1f 44 00 00    data16 nop    0x00(%rax,%rax,1) 
  0x00007ffff7674988  48 89 49 18          mov    %rcx -> 0x18(%rcx) 
  0x00007ffff767498c  48 89 49 10          mov    %rcx -> 0x10(%rcx) 
  0x00007ffff7674990  48 83 c1 10          add    $0x0000000000000010 %rcx -> %rcx 
  0x00007ffff7674994  48 39 f1             cmp    %rcx %rsi 
  0x00007ffff7674997  75 ef                jnz    $0x00007ffff7674988 

550bc4f4
Block 288:
  0x00007ffff7674988  48 89 49 18          mov    %rcx -> 0x18(%rcx) 
  0x00007ffff767498c  48 89 49 10          mov    %rcx -> 0x10(%rcx) 
  0x00007ffff7674990  48 83 c1 10          add    $0x0000000000000010 %rcx -> %rcx 
  0x00007ffff7674994  48 39 f1             cmp    %rcx %rsi 
  0x00007ffff7674997  75 ef                jnz    $0x00007ffff7674988 

550bc530
550bc530
550bc530
550bc530
550bc530
550bc530
550bc530
550bc530
550bc530
550bc530
550bc530
550bc530
550bc530
550bc530
550bc530
550bc530
550bc530
550bc530
550bc530
550bc530
550bc530
550bc530
550bc530
550bc530
550bc530
550bc530
550bc530
550bc530
550bc530
550bc530
550bc530
550bc530
550bc530
550bc530
550bc530
550bc530
550bc530
550bc530
550bc530
550bc530
550bc530
550bc530
550bc530
550bc530
550bc530
550bc530
550bc530
550bc530
550bc530
550bc530
550bc530
550bc530
550bc530
550bc530
550bc530
550bc530
550bc530
550bc530
550bc530
550bc530
550bc530
550bc530
550bc530
550bc530
550bc530
550bc530
550bc530
550bc530
550bc530
550bc530
550bc530
550bc530
550bc530
550bc530
550bc530
550bc530
550bc530
550bc530
550bc530
550bc530
550bc530
550bc530
550bc530
550bc530
550bc530
550bc530
550bc530
550bc530
550bc530
550bc530
550bc530
550bc530
550bc530
550bc530
550bc530
550bc530
550bc530
550bc530
550bc530
550bc530
550bc530
550bc530
550bc530
550bc530
550bc530
550bc530
550bc530
550bc530
550bc530
550bc530
550bc530
550bc530
550bc530
550bc530
550bc530
550bc530
550bc530
550bc530
550bc530
550bc530
550bc530
550bc530
550bc530
550bc530
550bc530
550bc530
Block 289:
  0x00007ffff7674999  48 8d 05 20 a3 33 00 lea    <rel> 0x00007ffff79aecc0 -> %rax 
  0x00007ffff76749a0  48 39 c2             cmp    %rdx %rax 
  0x00007ffff76749a3  0f 84 4e 01 00 00    jz     $0x00007ffff7674af7 

550bc554
Block 290:
  0x00007ffff76749a9  41 8b 41 24          mov    0x24(%r9) -> %eax 
  0x00007ffff76749ad  83 c8 02             or     $0x00000002 %eax -> %eax 
  0x00007ffff76749b0  83 c8 01             or     $0x00000001 %eax -> %eax 
  0x00007ffff76749b3  49 8d b1 b8 08 00 00 lea    0x000008b8(%r9) -> %rsi 
  0x00007ffff76749ba  49 8d 89 a8 08 00 00 lea    0x000008a8(%r9) -> %rcx 
  0x00007ffff76749c1  41 89 41 24          mov    %eax -> 0x24(%r9) 
  0x00007ffff76749c5  49 8b 41 10          mov    0x10(%r9) -> %rax 
  0x00007ffff76749c9  48 01 05 18 c1 33 00 add    %rax <rel> 0x00007ffff79b0ae8 -> <rel> 0x00007ffff79b0ae8 
  0x00007ffff76749d0  83 e6 0f             and    $0x0000000f %esi -> %esi 
  0x00007ffff76749d3  49 89 81 a0 08 00 00 mov    %rax -> 0x000008a0(%r9) 
  0x00007ffff76749da  49 89 81 98 08 00 00 mov    %rax -> 0x00000898(%r9) 
  0x00007ffff76749e1  74 07                jz     $0x00007ffff76749ea 

550bc574
Block 291:
  0x00007ffff76749e3  48 29 f1             sub    %rsi %rcx -> %rcx 
  0x00007ffff76749e6  48 83 c1 10          add    $0x0000000000000010 %rcx -> %rcx 
  0x00007ffff76749ea  4c 01 c8             add    %r9 %rax -> %rax 
  0x00007ffff76749ed  49 89 49 78          mov    %rcx -> 0x78(%r9) 
  0x00007ffff76749f1  48 29 c8             sub    %rcx %rax -> %rax 
  0x00007ffff76749f4  48 83 c8 01          or     $0x0000000000000001 %rax -> %rax 
  0x00007ffff76749f8  48 89 41 08          mov    %rax -> 0x08(%rcx) 
  0x00007ffff76749fc  90                   nop    
  0x00007ffff76749fd  48 8b 05 4c 93 33 00 mov    <rel> 0x00007ffff79add50 -> %rax 
  0x00007ffff7674a04  41 b8 01 00 00 00    mov    $0x00000001 -> %r8d 
  0x00007ffff7674a0a  45 31 d2             xor    %r10d %r10d -> %r10d 
  0x00007ffff7674a0d  41 c7 41 20 00 00 00 mov    $0x00000000 -> 0x20(%r9) 
                      00
  0x00007ffff7674a15  44 89 c6             mov    %r8d -> %esi 
  0x00007ffff7674a18  64 48 89 10          mov    %rdx -> %fs:(%rax) 
  0x00007ffff7674a1c  44 89 d0             mov    %r10d -> %eax 
  0x00007ffff7674a1f  83 3d ce f2 33 00 00 cmp    <rel> 0x00007ffff79b3cf4 $0x00000000 
  0x00007ffff7674a26  74 08                jz     $0x00007ffff7674a30 

550bc5d8
Block 292:
  0x00007ffff7674a30  0f b1 32             cmpxchg %esi (%rdx) %eax -> (%rdx) %eax 
  0x00007ffff7674a33  74 16                jz     $0x00007ffff7674a4b 

550bc66c
Block 293:
  0x00007ffff7674a4b  44 89 c6             mov    %r8d -> %esi 
  0x00007ffff7674a4e  44 89 d0             mov    %r10d -> %eax 
  0x00007ffff7674a51  83 3d 9c f2 33 00 00 cmp    <rel> 0x00007ffff79b3cf4 $0x00000000 
  0x00007ffff7674a58  74 0c                jz     $0x00007ffff7674a66 

550bc688
Block 294:
  0x00007ffff7674a66  0f b1 35 8b c0 33 00 cmpxchg %esi <rel> 0x00007ffff79b0af8 %eax -> <rel> 0x00007ffff79b0af8 %eax 
  0x00007ffff7674a6d  74 1a                jz     $0x00007ffff7674a89 

550bc6c4
Block 295:
  0x00007ffff7674a89  48 8b 05 98 aa 33 00 mov    <rel> 0x00007ffff79af528 -> %rax 
  0x00007ffff7674a90  49 89 81 88 08 00 00 mov    %rax -> 0x00000888(%r9) 
  0x00007ffff7674a97  48 89 15 8a aa 33 00 mov    %rdx -> <rel> 0x00007ffff79af528 
  0x00007ffff7674a9e  83 3d 4f f2 33 00 00 cmp    <rel> 0x00007ffff79b3cf4 $0x00000000 
  0x00007ffff7674aa5  74 0b                jz     $0x00007ffff7674ab2 

550bc6f8
Block 296:
  0x00007ffff7674ab2  ff 0d 40 c0 33 00    dec    <rel> 0x00007ffff79b0af8 -> <rel> 0x00007ffff79b0af8 
  0x00007ffff7674ab8  74 1a                jz     $0x00007ffff7674ad4 

550bc768
Block 297:
  0x00007ffff7674ad4  48 85 d2             test   %rdx %rdx 
  0x00007ffff7674ad7  0f 85 d0 fc ff ff    jnz    $0x00007ffff76747ad 

550bc7a0
Block 298:
  0x00007ffff76747ad  48 83 c4 08          add    $0x0000000000000008 %rsp -> %rsp 
  0x00007ffff76747b1  48 89 d0             mov    %rdx -> %rax 
  0x00007ffff76747b4  5b                   pop    %rsp (%rsp) -> %rbx %rsp 
  0x00007ffff76747b5  5d                   pop    %rsp (%rsp) -> %rbp %rsp 
  0x00007ffff76747b6  c3                   ret    %rsp (%rsp) -> %rsp 

7ffff767a1b7
Block 299:
  0x00007ffff767a1b7  48 85 c0             test   %rax %rax 
  0x00007ffff767a1ba  48 89 c3             mov    %rax -> %rbx 
  0x00007ffff767a1bd  75 94                jnz    $0x00007ffff767a153 

550bc7dc
Block 300:
  0x00007ffff767a153  48 89 ee             mov    %rbp -> %rsi 
  0x00007ffff767a156  48 89 df             mov    %rbx -> %rdi 
  0x00007ffff767a159  e8 62 d3 ff ff       call   $0x00007ffff76774c0 %rsp -> %rsp 0xfffffff8(%rsp) 
  0x00007ffff76774c0  41 57                push   %r15 %rsp -> %rsp 0xfffffff8(%rsp) 
  0x00007ffff76774c2  41 56                push   %r14 %rsp -> %rsp 0xfffffff8(%rsp) 
  0x00007ffff76774c4  41 55                push   %r13 %rsp -> %rsp 0xfffffff8(%rsp) 
  0x00007ffff76774c6  41 54                push   %r12 %rsp -> %rsp 0xfffffff8(%rsp) 
  0x00007ffff76774c8  55                   push   %rbp %rsp -> %rsp 0xfffffff8(%rsp) 
  0x00007ffff76774c9  53                   push   %rbx %rsp -> %rsp 0xfffffff8(%rsp) 
  0x00007ffff76774ca  48 81 ec a8 00 00 00 sub    $0x00000000000000a8 %rsp -> %rsp 
  0x00007ffff76774d1  48 83 fe bf          cmp    %rsi $0xffffffffffffffbf 
  0x00007ffff76774d5  0f 87 93 09 00 00    jnbe   $0x00007ffff7677e6e 

550bc7f8
Block 301:
  0x00007ffff76774db  4c 8d 56 17          lea    0x17(%rsi) -> %r10 
  0x00007ffff76774df  48 89 74 24 10       mov    %rsi -> 0x10(%rsp) 
  0x00007ffff76774e4  48 89 fb             mov    %rdi -> %rbx 
  0x00007ffff76774e7  49 83 fa 1f          cmp    %r10 $0x000000000000001f 
  0x00007ffff76774eb  0f 86 97 00 00 00    jbe    $0x00007ffff7677588 

550bc834
Block 302:
  0x00007ffff76774f1  49 83 e2 f0          and    $0xfffffffffffffff0 %r10 -> %r10 
  0x00007ffff76774f5  4c 3b 15 04 96 33 00 cmp    %r10 <rel> 0x00007ffff79b0b00 
  0x00007ffff76774fc  77 6b                jnbe   $0x00007ffff7677569 

550bc858
Block 303:
  0x00007ffff7677569  49 81 fa ff 03 00 00 cmp    %r10 $0x00000000000003ff 
  0x00007ffff7677570  77 7e                jnbe   $0x00007ffff76775f0 

550bc894
Block 304:
  0x00007ffff76775f0  4d 89 d5             mov    %r10 -> %r13 
  0x00007ffff76775f3  49 c1 ed 06          shr    $0x0000000000000006 %r13 -> %r13 
  0x00007ffff76775f7  49 83 fd 30          cmp    %r13 $0x0000000000000030 
  0x00007ffff76775fb  0f 86 44 08 00 00    jbe    $0x00007ffff7677e45 

550bc8b3
Block 305:
  0x00007ffff7677601  4d 89 d5             mov    %r10 -> %r13 
  0x00007ffff7677604  49 c1 ed 09          shr    $0x0000000000000009 %r13 -> %r13 
  0x00007ffff7677608  49 83 fd 14          cmp    %r13 $0x0000000000000014 
  0x00007ffff767760c  0f 87 71 08 00 00    jnbe   $0x00007ffff7677e83 

550bc8d4
Block 306:
  0x00007ffff7677e83  4d 89 d5             mov    %r10 -> %r13 
  0x00007ffff7677e86  49 c1 ed 0c          shr    $0x000000000000000c %r13 -> %r13 
  0x00007ffff7677e8a  49 83 fd 0a          cmp    %r13 $0x000000000000000a 
  0x00007ffff7677e8e  76 37                jbe    $0x00007ffff7677ec7 

550bc8f4
Block 307:
  0x00007ffff7677e90  4d 89 d5             mov    %r10 -> %r13 
  0x00007ffff7677e93  49 c1 ed 0f          shr    $0x000000000000000f %r13 -> %r13 
  0x00007ffff7677e97  49 83 fd 04          cmp    %r13 $0x0000000000000004 
  0x00007ffff7677e9b  0f 87 de 01 00 00    jnbe   $0x00007ffff767807f 

550bc914
Block 308:
  0x00007ffff767807f  4c 89 d0             mov    %r10 -> %rax 
  0x00007ffff7678082  48 c1 e8 12          shr    $0x0000000000000012 %rax -> %rax 
  0x00007ffff7678086  44 8d 68 7c          lea    0x7c(%rax) -> %r13d 
  0x00007ffff767808a  48 83 f8 02          cmp    %rax $0x0000000000000002 
  0x00007ffff767808e  b8 7e 00 00 00       mov    $0x0000007e -> %eax 
  0x00007ffff7678093  44 0f 47 e8          cmovnbe %eax %r13d -> %r13d 
  0x00007ffff7678097  e9 7a f5 ff ff       jmp    $0x00007ffff7677616 
  0x00007ffff7677616  f6 43 04 01          test   0x04(%rbx) $0x01 
  0x00007ffff767761a  75 10                jnz    $0x00007ffff767762c 

550bc934
Block 309:
  0x00007ffff767762c  44 89 d0             mov    %r10d -> %eax 
  0x00007ffff767762f  4c 89 d7             mov    %r10 -> %rdi 
  0x00007ffff7677632  4c 89 d1             mov    %r10 -> %rcx 
  0x00007ffff7677635  c1 e8 04             shr    $0x00000004 %eax -> %eax 
  0x00007ffff7677638  48 c1 ef 09          shr    $0x0000000000000009 %rdi -> %rdi 
  0x00007ffff767763c  4c 89 d6             mov    %r10 -> %rsi 
  0x00007ffff767763f  89 44 24 48          mov    %eax -> 0x48(%rsp) 
  0x00007ffff7677643  4c 89 d0             mov    %r10 -> %rax 
  0x00007ffff7677646  48 89 7c 24 50       mov    %rdi -> 0x50(%rsp) 
  0x00007ffff767764b  48 c1 e8 06          shr    $0x0000000000000006 %rax -> %rax 
  0x00007ffff767764f  83 c7 5b             add    $0x0000005b %edi -> %edi 
  0x00007ffff7677652  4c 89 d2             mov    %r10 -> %rdx 
  0x00007ffff7677655  48 89 44 24 40       mov    %rax -> 0x40(%rsp) 
  0x00007ffff767765a  89 7c 24 60          mov    %edi -> 0x60(%rsp) 
  0x00007ffff767765e  83 c0 30             add    $0x00000030 %eax -> %eax 
  0x00007ffff7677661  48 8d bc 24 80 00 00 lea    0x00000080(%rsp) -> %rdi 
                      00
  0x00007ffff7677669  89 44 24 4c          mov    %eax -> 0x4c(%rsp) 
  0x00007ffff767766d  b8 01 00 00 00       mov    $0x00000001 -> %eax 
  0x00007ffff7677672  48 c1 e9 0c          shr    $0x000000000000000c %rcx -> %rcx 
  0x00007ffff7677676  48 c1 ee 0f          shr    $0x000000000000000f %rsi -> %rsi 
  0x00007ffff767767a  48 c1 ea 12          shr    $0x0000000000000012 %rdx -> %rdx 
  0x00007ffff767767e  48 29 f8             sub    %rdi %rax -> %rax 
  0x00007ffff7677681  48 89 4c 24 58       mov    %rcx -> 0x58(%rsp) 
  0x00007ffff7677686  48 89 74 24 68       mov    %rsi -> 0x68(%rsp) 
  0x00007ffff767768b  48 89 44 24 30       mov    %rax -> 0x30(%rsp) 
  0x00007ffff7677690  48 8d 44 24 7f       lea    0x7f(%rsp) -> %rax 
  0x00007ffff7677695  48 89 54 24 70       mov    %rdx -> 0x70(%rsp) 
  0x00007ffff767769a  83 c6 77             add    $0x00000077 %esi -> %esi 
  0x00007ffff767769d  83 c2 7c             add    $0x0000007c %edx -> %edx 
  0x00007ffff76776a0  83 c1 6e             add    $0x0000006e %ecx -> %ecx 
  0x00007ffff76776a3  48 8d 6b 58          lea    0x58(%rbx) -> %rbp 
  0x00007ffff76776a7  44 89 2c 24          mov    %r13d -> (%rsp) 
  0x00007ffff76776ab  89 54 24 7c          mov    %edx -> 0x7c(%rsp) 
  0x00007ffff76776af  89 74 24 78          mov    %esi -> 0x78(%rsp) 
  0x00007ffff76776b3  89 4c 24 64          mov    %ecx -> 0x64(%rsp) 
  0x00007ffff76776b7  4d 89 d5             mov    %r10 -> %r13 
  0x00007ffff76776ba  48 89 7c 24 08       mov    %rdi -> 0x08(%rsp) 
  0x00007ffff76776bf  48 89 44 24 38       mov    %rax -> 0x38(%rsp) 
  0x00007ffff76776c4  41 bf 10 27 00 00    mov    $0x00002710 -> %r15d 
  0x00007ffff76776ca  eb 4c                jmp    $0x00007ffff7677718 
  0x00007ffff7677718  4c 8b 63 70          mov    0x70(%rbx) -> %r12 
  0x00007ffff767771c  49 39 ec             cmp    %r12 %rbp 
  0x00007ffff767771f  0f 84 b3 03 00 00    jz     $0x00007ffff7677ad8 

550bc964
Block 310:
  0x00007ffff7677ad8  49 81 fd ff 03 00 00 cmp    %r13 $0x00000000000003ff 
  0x00007ffff7677adf  0f 87 7a 02 00 00    jnbe   $0x00007ffff7677d5f 

550bca1c
Block 311:
  0x00007ffff7677d5f  8b 04 24             mov    (%rsp) -> %eax 
  0x00007ffff7677d62  8d 44 00 fe          lea    0xfffffffe(%rax,%rax,1) -> %eax 
  0x00007ffff7677d66  48 8d 44 c3 58       lea    0x58(%rbx,%rax,8) -> %rax 
  0x00007ffff7677d6b  48 8b 50 10          mov    0x10(%rax) -> %rdx 
  0x00007ffff7677d6f  48 39 c2             cmp    %rdx %rax 
  0x00007ffff7677d72  0f 84 6d fd ff ff    jz     $0x00007ffff7677ae5 

550bca38
Block 312:
  0x00007ffff7677ae5  8b 04 24             mov    (%rsp) -> %eax 
  0x00007ffff7677ae8  8d 48 01             lea    0x01(%rax) -> %ecx 
  0x00007ffff7677aeb  01 c0                add    %eax %eax -> %eax 
  0x00007ffff7677aed  48 8d 54 c3 58       lea    0x58(%rbx,%rax,8) -> %rdx 
  0x00007ffff7677af2  89 cf                mov    %ecx -> %edi 
  0x00007ffff7677af4  c1 ef 05             shr    $0x00000005 %edi -> %edi 
  0x00007ffff7677af7  89 f8                mov    %edi -> %eax 
  0x00007ffff7677af9  8b b4 83 58 08 00 00 mov    0x00000858(%rbx,%rax,4) -> %esi 
  0x00007ffff7677b00  b8 01 00 00 00       mov    $0x00000001 -> %eax 
  0x00007ffff7677b05  d3 e0                shl    %cl %eax -> %eax 
  0x00007ffff7677b07  85 c0                test   %eax %eax 
  0x00007ffff7677b09  41 0f 94 c0          setz   -> %r8l 
  0x00007ffff7677b0d  39 f0                cmp    %eax %esi 
  0x00007ffff7677b0f  0f 97 c1             setnbe -> %cl 
  0x00007ffff7677b12  44 08 c1             or     %r8l %cl -> %cl 
  0x00007ffff7677b15  0f 84 f3 00 00 00    jz     $0x00007ffff7677c0e 

550bca60
Block 313:
  0x00007ffff7677b1b  8d 47 01             lea    0x01(%rdi) -> %eax 
  0x00007ffff7677b1e  83 f8 03             cmp    %eax $0x00000003 
  0x00007ffff7677b21  77 3d                jnbe   $0x00007ffff7677b60 

550bcaa4
Block 314:
  0x00007ffff7677b60  4c 8b 7b 58          mov    0x58(%rbx) -> %r15 
  0x00007ffff7677b64  4d 8d 65 20          lea    0x20(%r13) -> %r12 
  0x00007ffff7677b68  49 8b 47 08          mov    0x08(%r15) -> %rax 
  0x00007ffff7677b6c  48 83 e0 f8          and    $0xfffffffffffffff8 %rax -> %rax 
  0x00007ffff7677b70  4c 39 e0             cmp    %rax %r12 
  0x00007ffff7677b73  0f 83 ba 05 00 00    jnb    $0x00007ffff7678133 

550bcac0
Block 315:
  0x00007ffff7678133  48 8d 15 86 6b 33 00 lea    <rel> 0x00007ffff79aecc0 -> %rdx 
  0x00007ffff767813a  4c 29 e8             sub    %r13 %rax -> %rax 
  0x00007ffff767813d  4d 89 ea             mov    %r13 -> %r10 
  0x00007ffff7678140  4b 8d 0c 2f          lea    (%r15,%r13,1) -> %rcx 
  0x00007ffff7678144  48 39 d3             cmp    %rbx %rdx 
  0x00007ffff7678147  0f 95 c2             setnz  -> %dl 
  0x00007ffff767814a  49 83 ca 01          or     $0x0000000000000001 %r10 -> %r10 
  0x00007ffff767814e  48 83 c8 01          or     $0x0000000000000001 %rax -> %rax 
  0x00007ffff7678152  0f b6 d2             movzx  %dl -> %edx 
  0x00007ffff7678155  48 89 4b 58          mov    %rcx -> 0x58(%rbx) 
  0x00007ffff7678159  48 c1 e2 02          shl    $0x0000000000000002 %rdx -> %rdx 
  0x00007ffff767815d  4c 09 d2             or     %r10 %rdx -> %rdx 
  0x00007ffff7678160  49 89 57 08          mov    %rdx -> 0x08(%r15) 
  0x00007ffff7678164  48 89 41 08          mov    %rax -> 0x08(%rcx) 
  0x00007ffff7678168  e9 e5 fd ff ff       jmp    $0x00007ffff7677f52 
  0x00007ffff7677f52  8b 05 a4 8b 33 00    mov    <rel> 0x00007ffff79b0afc -> %eax 
  0x00007ffff7677f58  49 8d 4f 10          lea    0x10(%r15) -> %rcx 
  0x00007ffff7677f5c  85 c0                test   %eax %eax 
  0x00007ffff7677f5e  0f 84 27 fd ff ff    jz     $0x00007ffff7677c8b 

550bcae8
Block 316:
  0x00007ffff7677c8b  48 81 c4 a8 00 00 00 add    $0x00000000000000a8 %rsp -> %rsp 
  0x00007ffff7677c92  48 89 c8             mov    %rcx -> %rax 
  0x00007ffff7677c95  5b                   pop    %rsp (%rsp) -> %rbx %rsp 
  0x00007ffff7677c96  5d                   pop    %rsp (%rsp) -> %rbp %rsp 
  0x00007ffff7677c97  41 5c                pop    %rsp (%rsp) -> %r12 %rsp 
  0x00007ffff7677c99  41 5d                pop    %rsp (%rsp) -> %r13 %rsp 
  0x00007ffff7677c9b  41 5e                pop    %rsp (%rsp) -> %r14 %rsp 
  0x00007ffff7677c9d  41 5f                pop    %rsp (%rsp) -> %r15 %rsp 
  0x00007ffff7677c9f  c3                   ret    %rsp (%rsp) -> %rsp 

7ffff767a15e
Block 317:
  0x00007ffff767a15e  48 85 c0             test   %rax %rax 
  0x00007ffff767a161  48 89 c2             mov    %rax -> %rdx 
  0x00007ffff767a164  74 62                jz     $0x00007ffff767a1c8 

550bcb74
Block 318:
  0x00007ffff767a166  83 3d 87 9b 33 00 00 cmp    <rel> 0x00007ffff79b3cf4 $0x00000000 
  0x00007ffff767a16d  74 07                jz     $0x00007ffff767a176 

550bcb90
Block 319:
  0x00007ffff767a176  ff 0b                dec    (%rbx) -> (%rbx) 
  0x00007ffff767a178  74 16                jz     $0x00007ffff767a190 

550bcbc8
Block 320:
  0x00007ffff767a190  48 89 d0             mov    %rdx -> %rax 
  0x00007ffff767a193  48 83 c4 08          add    $0x0000000000000008 %rsp -> %rsp 
  0x00007ffff767a197  5b                   pop    %rsp (%rsp) -> %rbx %rsp 
  0x00007ffff767a198  5d                   pop    %rsp (%rsp) -> %rbp %rsp 
  0x00007ffff767a199  c3                   ret    %rsp (%rsp) -> %rsp 

400c4e
Block 321:
  0x0000000000400c4e  48 89 c1             mov    %rax -> %rcx 
  0x0000000000400c51  8b 45 fc             mov    0xfffffffc(%rbp) -> %eax 
  0x0000000000400c54  48 63 d0             movsxd %eax -> %rdx 
  0x0000000000400c57  48 89 d0             mov    %rdx -> %rax 
  0x0000000000400c5a  48 01 c0             add    %rax %rax -> %rax 
  0x0000000000400c5d  48 01 d0             add    %rdx %rax -> %rax 
  0x0000000000400c60  48 c1 e0 03          shl    $0x0000000000000003 %rax -> %rax 
  0x0000000000400c64  48 05 50 9e 61 00    add    $0x0000000000619e50 %rax -> %rax 
  0x0000000000400c6a  48 89 08             mov    %rcx -> (%rax) 
  0x0000000000400c6d  8b 45 fc             mov    0xfffffffc(%rbp) -> %eax 
  0x0000000000400c70  48 63 d0             movsxd %eax -> %rdx 
  0x0000000000400c73  48 89 d0             mov    %rdx -> %rax 
  0x0000000000400c76  48 01 c0             add    %rax %rax -> %rax 
  0x0000000000400c79  48 01 d0             add    %rdx %rax -> %rax 
  0x0000000000400c7c  48 c1 e0 03          shl    $0x0000000000000003 %rax -> %rax 
  0x0000000000400c80  48 05 50 9e 61 00    add    $0x0000000000619e50 %rax -> %rax 
  0x0000000000400c86  48 8b 00             mov    (%rax) -> %rax 
  0x0000000000400c89  48 85 c0             test   %rax %rax 
  0x0000000000400c8c  75 14                jnz    $0x0000000000400ca2 

550bcc04
Block 322:
  0x0000000000400ca2  c7 45 f8 00 00 00 00 mov    $0x00000000 -> 0xfffffff8(%rbp) 
  0x0000000000400ca9  eb 2e                jmp    $0x0000000000400cd9 
  0x0000000000400cd9  8b 45 f8             mov    0xfffffff8(%rbp) -> %eax 
  0x0000000000400cdc  3b 45 f4             cmp    %eax 0xfffffff4(%rbp) 
  0x0000000000400cdf  7c ca                jl     $0x0000000000400cab 

550bcc58
Block 323:
  0x0000000000400cab  8b 45 fc             mov    0xfffffffc(%rbp) -> %eax 
  0x0000000000400cae  48 63 d0             movsxd %eax -> %rdx 
  0x0000000000400cb1  48 89 d0             mov    %rdx -> %rax 
  0x0000000000400cb4  48 01 c0             add    %rax %rax -> %rax 
  0x0000000000400cb7  48 01 d0             add    %rdx %rax -> %rax 
  0x0000000000400cba  48 c1 e0 03          shl    $0x0000000000000003 %rax -> %rax 
  0x0000000000400cbe  48 05 50 9e 61 00    add    $0x0000000000619e50 %rax -> %rax 
  0x0000000000400cc4  48 8b 10             mov    (%rax) -> %rdx 
  0x0000000000400cc7  8b 45 f8             mov    0xfffffff8(%rbp) -> %eax 
  0x0000000000400cca  48 98                cwde   %ax -> %rax 
  0x0000000000400ccc  48 01 d0             add    %rdx %rax -> %rax 
  0x0000000000400ccf  c6 00 00             mov    $0x00 -> (%rax) 
  0x0000000000400cd2  81 45 f8 00 04 00 00 add    $0x00000400 0xfffffff8(%rbp) -> 0xfffffff8(%rbp) 
  0x0000000000400cd9  8b 45 f8             mov    0xfffffff8(%rbp) -> %eax 
  0x0000000000400cdc  3b 45 f4             cmp    %eax 0xfffffff4(%rbp) 
  0x0000000000400cdf  7c ca                jl     $0x0000000000400cab 

550bcc78
550bcc78
550bcc78
550bcc78
550bcc78
550bcc78
550bcc78
550bcc78
550bcc78
550bcc78
550bcc78
550bcc78
550bcc78
550bcc78
550bcc78
550bcc78
550bcc78
550bcc78
550bcc78
550bcc78
550bcc78
550bcc78
550bcc78
550bcc78
550bcc78
550bcc78
550bcc78
550bcc78
550bcc78
550bcc78
550bcc78
550bcc78
550bcc78
550bcc78
550bcc78
550bcc78
550bcc78
550bcc78
550bcc78
550bcc78
550bcc78
550bcc78
550bcc78
550bcc78
550bcc78
550bcc78
550bcc78
550bcc78
550bcc78
550bcc78
550bcc78
550bcc78
550bcc78
550bcc78
550bcc78
550bcc78
550bcc78
550bcc78
550bcc78
550bcc78
550bcc78
550bcc78
550bcc78
550bcc78
550bcc78
550bcc78
550bcc78
550bcc78
550bcc78
550bcc78
550bcc78
550bcc78
550bcc78
550bcc78
550bcc78
550bcc78
550bcc78
550bcc78
550bcc78
550bcc78
550bcc78
550bcc78
550bcc78
550bcc78
550bcc78
550bcc78
550bcc78
550bcc78
550bcc78
550bcc78
550bcc78
550bcc78
550bcc78
550bcc78
550bcc78
550bcc78
550bcc78
550bcc78
550bcc78
550bcc78
550bcc78
550bcc78
550bcc78
550bcc78
550bcc78
550bcc78
550bcc78
550bcc78
550bcc78
550bcc78
550bcc78
550bcc78
550bcc78
550bcc78
550bcc78
550bcc78
550bcc78
550bcc78
550bcc78
550bcc78
550bcc78
550bcc78
550bcc78
550bcc78
550bcc78
550bcc78
550bcc78
550bcc78
550bcc78
550bcc78
550bcc78
550bcc78
550bcc78
550bcc78
550bcc78
550bcc78
550bcc78
550bcc78
550bcc78
550bcc78
550bcc78
550bcc78
550bcc78
550bcc78
550bcc78
550bcc78
550bcc78
550bcc78
550bcc78
550bcc78
550bcc78
550bcc78
550bcc78
550bcc78
550bcc78
550bcc78
550bcc78
550bcc78
550bcc78
550bcc78
550bcc78
550bcc78
550bcc78
550bcc78
550bcc78
550bcc78
550bcc78
550bcc78
550bcc78
550bcc78
550bcc78
550bcc78
550bcc78
550bcc78
550bcc78
550bcc78
550bcc78
550bcc78
550bcc78
550bcc78
550bcc78
550bcc78
550bcc78
550bcc78
550bcc78
550bcc78
550bcc78
550bcc78
550bcc78
550bcc78
550bcc78
550bcc78
550bcc78
550bcc78
550bcc78
550bcc78
550bcc78
550bcc78
550bcc78
550bcc78
550bcc78
550bcc78
550bcc78
550bcc78
550bcc78
550bcc78
550bcc78
550bcc78
550bcc78
550bcc78
550bcc78
550bcc78
550bcc78
550bcc78
550bcc78
550bcc78
550bcc78
550bcc78
550bcc78
550bcc78
550bcc78
550bcc78
550bcc78
550bcc78
550bcc78
550bcc78
550bcc78
550bcc78
550bcc78
550bcc78
550bcc78
550bcc78
550bcc78
550bcc78
550bcc78
550bcc78
550bcc78
550bcc78
550bcc78
550bcc78
550bcc78
550bcc78
550bcc78
550bcc78
550bcc78
550bcc78
550bcc78
550bcc78
550bcc78
550bcc78
550bcc78
550bcc78
550bcc78
550bcc78
550bcc78
550bcc78
550bcc78
550bcc78
550bcc78
550bcc78
550bcc78
550bcc78
550bcc78
550bcc78
550bcc78
550bcc78
550bcc78
550bcc78
550bcc78
550bcc78
550bcc78
550bcc78
550bcc78
550bcc78
550bcc78
550bcc78
550bcc78
550bcc78
550bcc78
550bcc78
550bcc78
550bcc78
550bcc78
550bcc78
550bcc78
550bcc78
550bcc78
550bcc78
550bcc78
550bcc78
550bcc78
550bcc78
550bcc78
550bcc78
550bcc78
550bcc78
550bcc78
550bcc78
550bcc78
550bcc78
550bcc78
550bcc78
550bcc78
550bcc78
550bcc78
550bcc78
550bcc78
550bcc78
550bcc78
550bcc78
550bcc78
550bcc78
550bcc78
550bcc78
550bcc78
550bcc78
550bcc78
550bcc78
550bcc78
550bcc78
550bcc78
550bcc78
550bcc78
550bcc78
550bcc78
550bcc78
550bcc78
550bcc78
550bcc78
550bcc78
550bcc78
550bcc78
550bcc78
550bcc78
550bcc78
550bcc78
550bcc78
550bcc78
550bcc78
550bcc78
550bcc78
550bcc78
550bcc78
550bcc78
550bcc78
550bcc78
550bcc78
550bcc78
550bcc78
550bcc78
550bcc78
550bcc78
550bcc78
550bcc78
550bcc78
550bcc78
550bcc78
550bcc78
550bcc78
550bcc78
550bcc78
550bcc78
550bcc78
550bcc78
550bcc78
550bcc78
550bcc78
550bcc78
550bcc78
550bcc78
550bcc78
550bcc78
550bcc78
550bcc78
550bcc78
550bcc78
550bcc78
550bcc78
550bcc78
550bcc78
550bcc78
550bcc78
550bcc78
550bcc78
550bcc78
550bcc78
550bcc78
550bcc78
550bcc78
550bcc78
550bcc78
550bcc78
550bcc78
550bcc78
550bcc78
550bcc78
550bcc78
550bcc78
550bcc78
550bcc78
550bcc78
550bcc78
550bcc78
550bcc78
550bcc78
550bcc78
550bcc78
550bcc78
550bcc78
550bcc78
550bcc78
550bcc78
550bcc78
550bcc78
550bcc78
550bcc78
550bcc78
550bcc78
550bcc78
550bcc78
550bcc78
550bcc78
550bcc78
550bcc78
550bcc78
550bcc78
550bcc78
550bcc78
550bcc78
550bcc78
550bcc78
550bcc78
550bcc78
550bcc78
550bcc78
550bcc78
550bcc78
550bcc78
550bcc78
550bcc78
550bcc78
550bcc78
550bcc78
550bcc78
550bcc78
550bcc78
550bcc78
550bcc78
550bcc78
550bcc78
550bcc78
550bcc78
550bcc78
550bcc78
550bcc78
550bcc78
550bcc78
550bcc78
550bcc78
550bcc78
550bcc78
550bcc78
550bcc78
550bcc78
550bcc78
550bcc78
550bcc78
550bcc78
550bcc78
550bcc78
550bcc78
550bcc78
550bcc78
550bcc78
550bcc78
550bcc78
550bcc78
550bcc78
550bcc78
550bcc78
550bcc78
550bcc78
550bcc78
550bcc78
550bcc78
550bcc78
550bcc78
550bcc78
550bcc78
550bcc78
550bcc78
550bcc78
550bcc78
550bcc78
550bcc78
550bcc78
550bcc78
550bcc78
550bcc78
550bcc78
550bcc78
550bcc78
550bcc78
550bcc78
550bcc78
550bcc78
550bcc78
550bcc78
550bcc78
550bcc78
550bcc78
550bcc78
550bcc78
550bcc78
550bcc78
550bcc78
550bcc78
550bcc78
550bcc78
550bcc78
550bcc78
550bcc78
550bcc78
550bcc78
550bcc78
550bcc78
550bcc78
550bcc78
550bcc78
550bcc78
550bcc78
550bcc78
550bcc78
550bcc78
550bcc78
550bcc78
550bcc78
550bcc78
550bcc78
550bcc78
550bcc78
550bcc78
550bcc78
550bcc78
550bcc78
550bcc78
550bcc78
550bcc78
550bcc78
550bcc78
550bcc78
550bcc78
550bcc78
550bcc78
550bcc78
550bcc78
550bcc78
550bcc78
550bcc78
550bcc78
550bcc78
550bcc78
550bcc78
550bcc78
550bcc78
550bcc78
550bcc78
550bcc78
550bcc78
550bcc78
550bcc78
550bcc78
550bcc78
550bcc78
550bcc78
550bcc78
550bcc78
550bcc78
550bcc78
550bcc78
550bcc78
550bcc78
550bcc78
550bcc78
550bcc78
550bcc78
550bcc78
550bcc78
550bcc78
550bcc78
550bcc78
550bcc78
550bcc78
550bcc78
550bcc78
550bcc78
550bcc78
550bcc78
550bcc78
550bcc78
550bcc78
550bcc78
550bcc78
550bcc78
550bcc78
550bcc78
550bcc78
550bcc78
550bcc78
550bcc78
550bcc78
550bcc78
550bcc78
550bcc78
550bcc78
550bcc78
550bcc78
550bcc78
550bcc78
550bcc78
550bcc78
550bcc78
550bcc78
550bcc78
550bcc78
550bcc78
550bcc78
550bcc78
550bcc78
550bcc78
550bcc78
550bcc78
550bcc78
550bcc78
550bcc78
550bcc78
550bcc78
550bcc78
550bcc78
550bcc78
550bcc78
550bcc78
550bcc78
550bcc78
550bcc78
550bcc78
550bcc78
550bcc78
550bcc78
550bcc78
550bcc78
550bcc78
550bcc78
550bcc78
550bcc78
550bcc78
550bcc78
550bcc78
550bcc78
550bcc78
550bcc78
550bcc78
550bcc78
550bcc78
550bcc78
550bcc78
550bcc78
550bcc78
550bcc78
550bcc78
550bcc78
550bcc78
550bcc78
550bcc78
550bcc78
550bcc78
550bcc78
550bcc78
550bcc78
550bcc78
550bcc78
550bcc78
550bcc78
550bcc78
550bcc78
550bcc78
550bcc78
550bcc78
550bcc78
550bcc78
550bcc78
550bcc78
550bcc78
550bcc78
550bcc78
550bcc78
550bcc78
550bcc78
550bcc78
550bcc78
550bcc78
550bcc78
550bcc78
550bcc78
550bcc78
550bcc78
550bcc78
550bcc78
550bcc78
550bcc78
550bcc78
550bcc78
550bcc78
550bcc78
550bcc78
550bcc78
550bcc78
550bcc78
550bcc78
550bcc78
550bcc78
550bcc78
550bcc78
550bcc78
550bcc78
550bcc78
550bcc78
550bcc78
550bcc78
550bcc78
550bcc78
550bcc78
550bcc78
550bcc78
550bcc78
550bcc78
550bcc78
550bcc78
550bcc78
550bcc78
550bcc78
550bcc78
550bcc78
550bcc78
550bcc78
550bcc78
550bcc78
550bcc78
550bcc78
550bcc78
550bcc78
550bcc78
550bcc78
550bcc78
550bcc78
550bcc78
550bcc78
550bcc78
550bcc78
550bcc78
550bcc78
550bcc78
550bcc78
550bcc78
550bcc78
550bcc78
550bcc78
550bcc78
550bcc78
550bcc78
550bcc78
550bcc78
550bcc78
550bcc78
550bcc78
550bcc78
550bcc78
550bcc78
550bcc78
550bcc78
550bcc78
550bcc78
550bcc78
550bcc78
550bcc78
550bcc78
550bcc78
550bcc78
550bcc78
550bcc78
550bcc78
550bcc78
550bcc78
550bcc78
550bcc78
550bcc78
550bcc78
550bcc78
550bcc78
550bcc78
550bcc78
550bcc78
550bcc78
550bcc78
550bcc78
550bcc78
550bcc78
550bcc78
550bcc78
550bcc78
550bcc78
550bcc78
550bcc78
550bcc78
550bcc78
550bcc78
550bcc78
550bcc78
550bcc78
550bcc78
550bcc78
550bcc78
550bcc78
550bcc78
550bcc78
550bcc78
550bcc78
550bcc78
550bcc78
550bcc78
550bcc78
550bcc78
550bcc78
550bcc78
550bcc78
550bcc78
550bcc78
550bcc78
550bcc78
550bcc78
550bcc78
550bcc78
550bcc78
550bcc78
550bcc78
550bcc78
550bcc78
550bcc78
550bcc78
550bcc78
550bcc78
550bcc78
550bcc78
550bcc78
550bcc78
550bcc78
550bcc78
550bcc78
550bcc78
550bcc78
550bcc78
550bcc78
550bcc78
550bcc78
550bcc78
550bcc78
550bcc78
550bcc78
550bcc78
550bcc78
550bcc78
550bcc78
550bcc78
550bcc78
550bcc78
550bcc78
550bcc78
550bcc78
550bcc78
550bcc78
550bcc78
550bcc78
550bcc78
550bcc78
550bcc78
550bcc78
550bcc78
550bcc78
550bcc78
550bcc78
550bcc78
550bcc78
550bcc78
550bcc78
550bcc78
550bcc78
550bcc78
550bcc78
550bcc78
550bcc78
550bcc78
550bcc78
550bcc78
550bcc78
550bcc78
550bcc78
550bcc78
550bcc78
550bcc78
550bcc78
550bcc78
550bcc78
550bcc78
550bcc78
550bcc78
550bcc78
550bcc78
550bcc78
550bcc78
550bcc78
550bcc78
550bcc78
550bcc78
550bcc78
550bcc78
550bcc78
550bcc78
550bcc78
550bcc78
550bcc78
550bcc78
550bcc78
550bcc78
550bcc78
550bcc78
550bcc78
550bcc78
550bcc78
550bcc78
550bcc78
550bcc78
550bcc78
550bcc78
550bcc78
550bcc78
550bcc78
550bcc78
550bcc78
550bcc78
550bcc78
550bcc78
550bcc78
550bcc78
550bcc78
550bcc78
550bcc78
550bcc78
550bcc78
550bcc78
550bcc78
550bcc78
550bcc78
550bcc78
550bcc78
550bcc78
550bcc78
550bcc78
550bcc78
550bcc78
550bcc78
550bcc78
550bcc78
550bcc78
550bcc78
550bcc78
550bcc78
550bcc78
550bcc78
550bcc78
550bcc78
550bcc78
550bcc78
550bcc78
550bcc78
550bcc78
550bcc78
550bcc78
550bcc78
550bcc78
550bcc78
550bcc78
550bcc78
550bcc78
550bcc78
550bcc78
550bcc78
550bcc78
550bcc78
550bcc78
550bcc78
550bcc78
550bcc78
550bcc78
550bcc78
550bcc78
550bcc78
550bcc78
550bcc78
550bcc78
550bcc78
550bcc78
550bcc78
550bcc78
550bcc78
550bcc78
550bcc78
550bcc78
550bcc78
550bcc78
550bcc78
550bcc78
550bcc78
550bcc78
550bcc78
550bcc78
550bcc78
550bcc78
550bcc78
550bcc78
550bcc78
550bcc78
550bcc78
550bcc78
550bcc78
550bcc78
550bcc78
550bcc78
550bcc78
550bcc78
550bcc78
550bcc78
550bcc78
550bcc78
550bcc78
550bcc78
550bcc78
550bcc78
550bcc78
550bcc78
550bcc78
550bcc78
550bcc78
550bcc78
550bcc78
550bcc78
550bcc78
550bcc78
550bcc78
550bcc78
550bcc78
550bcc78
550bcc78
550bcc78
550bcc78
550bcc78
550bcc78
550bcc78
550bcc78
550bcc78
550bcc78
550bcc78
550bcc78
550bcc78
550bcc78
550bcc78
550bcc78
550bcc78
550bcc78
550bcc78
550bcc78
550bcc78
550bcc78
550bcc78
550bcc78
550bcc78
550bcc78
550bcc78
550bcc78
550bcc78
550bcc78
550bcc78
550bcc78
550bcc78
550bcc78
550bcc78
550bcc78
550bcc78
550bcc78
550bcc78
550bcc78
550bcc78
550bcc78
550bcc78
550bcc78
550bcc78
550bcc78
550bcc78
550bcc78
550bcc78
550bcc78
550bcc78
550bcc78
550bcc78
550bcc78
550bcc78
550bcc78
550bcc78
550bcc78
550bcc78
550bcc78
550bcc78
550bcc78
550bcc78
550bcc78
550bcc78
550bcc78
550bcc78
550bcc78
550bcc78
550bcc78
550bcc78
550bcc78
550bcc78
550bcc78
550bcc78
550bcc78
550bcc78
550bcc78
550bcc78
550bcc78
550bcc78
550bcc78
550bcc78
550bcc78
550bcc78
550bcc78
550bcc78
550bcc78
550bcc78
550bcc78
550bcc78
550bcc78
550bcc78
550bcc78
550bcc78
550bcc78
550bcc78
550bcc78
550bcc78
550bcc78
550bcc78
550bcc78
550bcc78
550bcc78
550bcc78
550bcc78
550bcc78
550bcc78
550bcc78
550bcc78
550bcc78
550bcc78
550bcc78
550bcc78
550bcc78
550bcc78
550bcc78
550bcc78
550bcc78
550bcc78
550bcc78
550bcc78
550bcc78
550bcc78
550bcc78
550bcc78
550bcc78
550bcc78
550bcc78
550bcc78
550bcc78
550bcc78
550bcc78
550bcc78
550bcc78
550bcc78
550bcc78
550bcc78
550bcc78
550bcc78
550bcc78
550bcc78
550bcc78
550bcc78
550bcc78
550bcc78
550bcc78
550bcc78
550bcc78
550bcc78
550bcc78
550bcc78
550bcc78
550bcc78
550bcc78
550bcc78
550bcc78
550bcc78
550bcc78
550bcc78
550bcc78
550bcc78
550bcc78
550bcc78
550bcc78
550bcc78
550bcc78
550bcc78
550bcc78
550bcc78
550bcc78
550bcc78
550bcc78
550bcc78
550bcc78
550bcc78
550bcc78
550bcc78
550bcc78
550bcc78
550bcc78
550bcc78
550bcc78
550bcc78
550bcc78
550bcc78
550bcc78
550bcc78
550bcc78
550bcc78
550bcc78
550bcc78
550bcc78
550bcc78
550bcc78
550bcc78
550bcc78
550bcc78
550bcc78
550bcc78
550bcc78
550bcc78
550bcc78
550bcc78
550bcc78
550bcc78
550bcc78
550bcc78
550bcc78
550bcc78
550bcc78
550bcc78
550bcc78
550bcc78
550bcc78
550bcc78
550bcc78
550bcc78
550bcc78
550bcc78
550bcc78
550bcc78
550bcc78
550bcc78
550bcc78
550bcc78
550bcc78
550bcc78
550bcc78
550bcc78
550bcc78
550bcc78
550bcc78
550bcc78
550bcc78
550bcc78
550bcc78
550bcc78
550bcc78
550bcc78
550bcc78
550bcc78
550bcc78
550bcc78
550bcc78
550bcc78
550bcc78
550bcc78
550bcc78
550bcc78
550bcc78
550bcc78
550bcc78
550bcc78
550bcc78
550bcc78
550bcc78
550bcc78
550bcc78
550bcc78
550bcc78
550bcc78
550bcc78
550bcc78
550bcc78
550bcc78
550bcc78
550bcc78
550bcc78
550bcc78
550bcc78
550bcc78
550bcc78
550bcc78
550bcc78
550bcc78
550bcc78
550bcc78
550bcc78
550bcc78
550bcc78
550bcc78
550bcc78
550bcc78
550bcc78
550bcc78
550bcc78
550bcc78
550bcc78
550bcc78
550bcc78
550bcc78
550bcc78
550bcc78
550bcc78
550bcc78
550bcc78
550bcc78
550bcc78
550bcc78
550bcc78
550bcc78
550bcc78
550bcc78
550bcc78
550bcc78
550bcc78
550bcc78
550bcc78
550bcc78
550bcc78
550bcc78
550bcc78
550bcc78
550bcc78
550bcc78
550bcc78
550bcc78
550bcc78
550bcc78
550bcc78
550bcc78
550bcc78
550bcc78
550bcc78
550bcc78
550bcc78
550bcc78
550bcc78
550bcc78
550bcc78
550bcc78
550bcc78
550bcc78
550bcc78
550bcc78
550bcc78
550bcc78
550bcc78
550bcc78
550bcc78
550bcc78
550bcc78
550bcc78
550bcc78
550bcc78
550bcc78
550bcc78
550bcc78
550bcc78
550bcc78
550bcc78
550bcc78
550bcc78
550bcc78
550bcc78
550bcc78
550bcc78
550bcc78
550bcc78
550bcc78
550bcc78
550bcc78
550bcc78
550bcc78
550bcc78
550bcc78
550bcc78
550bcc78
550bcc78
550bcc78
550bcc78
550bcc78
550bcc78
550bcc78
550bcc78
550bcc78
550bcc78
550bcc78
550bcc78
550bcc78
550bcc78
550bcc78
550bcc78
550bcc78
550bcc78
550bcc78
550bcc78
550bcc78
550bcc78
550bcc78
550bcc78
550bcc78
550bcc78
550bcc78
550bcc78
550bcc78
550bcc78
550bcc78
550bcc78
550bcc78
550bcc78
550bcc78
550bcc78
550bcc78
550bcc78
550bcc78
550bcc78
550bcc78
550bcc78
550bcc78
550bcc78
550bcc78
550bcc78
550bcc78
550bcc78
550bcc78
550bcc78
550bcc78
550bcc78
550bcc78
550bcc78
550bcc78
550bcc78
550bcc78
550bcc78
550bcc78
550bcc78
550bcc78
550bcc78
550bcc78
550bcc78
550bcc78
550bcc78
550bcc78
550bcc78
550bcc78
550bcc78
550bcc78
550bcc78
550bcc78
550bcc78
550bcc78
550bcc78
550bcc78
550bcc78
550bcc78
550bcc78
550bcc78
550bcc78
550bcc78
550bcc78
550bcc78
550bcc78
550bcc78
550bcc78
550bcc78
550bcc78
550bcc78
550bcc78
550bcc78
550bcc78
550bcc78
550bcc78
550bcc78
550bcc78
550bcc78
550bcc78
550bcc78
550bcc78
550bcc78
550bcc78
550bcc78
550bcc78
550bcc78
550bcc78
550bcc78
550bcc78
550bcc78
550bcc78
550bcc78
550bcc78
550bcc78
550bcc78
550bcc78
550bcc78
550bcc78
550bcc78
550bcc78
550bcc78
550bcc78
550bcc78
550bcc78
550bcc78
550bcc78
550bcc78
550bcc78
550bcc78
550bcc78
550bcc78
550bcc78
550bcc78
550bcc78
550bcc78
550bcc78
550bcc78
550bcc78
550bcc78
550bcc78
550bcc78
550bcc78
550bcc78
550bcc78
550bcc78
550bcc78
550bcc78
550bcc78
550bcc78
550bcc78
550bcc78
550bcc78
550bcc78
550bcc78
550bcc78
550bcc78
550bcc78
550bcc78
550bcc78
550bcc78
550bcc78
550bcc78
550bcc78
550bcc78
550bcc78
550bcc78
550bcc78
550bcc78
550bcc78
550bcc78
550bcc78
550bcc78
550bcc78
550bcc78
550bcc78
550bcc78
550bcc78
550bcc78
550bcc78
550bcc78
550bcc78
550bcc78
550bcc78
550bcc78
550bcc78
550bcc78
550bcc78
550bcc78
550bcc78
550bcc78
550bcc78
550bcc78
550bcc78
550bcc78
550bcc78
550bcc78
550bcc78
550bcc78
550bcc78
550bcc78
550bcc78
550bcc78
550bcc78
550bcc78
550bcc78
550bcc78
550bcc78
550bcc78
550bcc78
550bcc78
550bcc78
550bcc78
550bcc78
550bcc78
550bcc78
550bcc78
550bcc78
550bcc78
550bcc78
550bcc78
550bcc78
550bcc78
550bcc78
550bcc78
550bcc78
550bcc78
550bcc78
550bcc78
550bcc78
550bcc78
550bcc78
550bcc78
550bcc78
550bcc78
550bcc78
550bcc78
550bcc78
550bcc78
550bcc78
550bcc78
550bcc78
550bcc78
550bcc78
550bcc78
550bcc78
550bcc78
550bcc78
550bcc78
550bcc78
550bcc78
550bcc78
550bcc78
550bcc78
550bcc78
550bcc78
550bcc78
550bcc78
550bcc78
550bcc78
550bcc78
550bcc78
550bcc78
550bcc78
550bcc78
550bcc78
550bcc78
550bcc78
550bcc78
550bcc78
550bcc78
550bcc78
550bcc78
550bcc78
550bcc78
550bcc78
550bcc78
550bcc78
550bcc78
550bcc78
550bcc78
550bcc78
550bcc78
550bcc78
550bcc78
550bcc78
550bcc78
550bcc78
550bcc78
550bcc78
550bcc78
550bcc78
550bcc78
550bcc78
550bcc78
550bcc78
550bcc78
550bcc78
550bcc78
550bcc78
550bcc78
550bcc78
550bcc78
550bcc78
550bcc78
550bcc78
550bcc78
550bcc78
550bcc78
550bcc78
550bcc78
550bcc78
550bcc78
550bcc78
550bcc78
550bcc78
550bcc78
550bcc78
550bcc78
550bcc78
550bcc78
550bcc78
550bcc78
550bcc78
550bcc78
550bcc78
550bcc78
550bcc78
550bcc78
550bcc78
550bcc78
550bcc78
550bcc78
550bcc78
550bcc78
550bcc78
550bcc78
550bcc78
550bcc78
550bcc78
550bcc78
550bcc78
550bcc78
550bcc78
550bcc78
550bcc78
550bcc78
550bcc78
550bcc78
550bcc78
550bcc78
550bcc78
550bcc78
550bcc78
550bcc78
550bcc78
550bcc78
550bcc78
550bcc78
550bcc78
550bcc78
550bcc78
550bcc78
550bcc78
550bcc78
550bcc78
550bcc78
550bcc78
550bcc78
550bcc78
550bcc78
550bcc78
550bcc78
550bcc78
550bcc78
550bcc78
550bcc78
550bcc78
550bcc78
550bcc78
550bcc78
550bcc78
550bcc78
550bcc78
550bcc78
550bcc78
550bcc78
550bcc78
550bcc78
550bcc78
550bcc78
550bcc78
550bcc78
550bcc78
550bcc78
550bcc78
550bcc78
550bcc78
550bcc78
550bcc78
550bcc78
550bcc78
550bcc78
550bcc78
550bcc78
550bcc78
550bcc78
550bcc78
550bcc78
550bcc78
550bcc78
550bcc78
550bcc78
550bcc78
550bcc78
550bcc78
550bcc78
550bcc78
550bcc78
550bcc78
550bcc78
550bcc78
550bcc78
550bcc78
550bcc78
550bcc78
550bcc78
550bcc78
550bcc78
550bcc78
550bcc78
550bcc78
550bcc78
550bcc78
550bcc78
550bcc78
550bcc78
550bcc78
550bcc78
550bcc78
550bcc78
550bcc78
550bcc78
550bcc78
550bcc78
550bcc78
550bcc78
550bcc78
550bcc78
550bcc78
550bcc78
550bcc78
550bcc78
550bcc78
550bcc78
550bcc78
550bcc78
550bcc78
550bcc78
550bcc78
550bcc78
550bcc78
550bcc78
550bcc78
550bcc78
550bcc78
550bcc78
550bcc78
550bcc78
550bcc78
550bcc78
550bcc78
550bcc78
550bcc78
550bcc78
550bcc78
550bcc78
550bcc78
550bcc78
550bcc78
550bcc78
550bcc78
550bcc78
550bcc78
550bcc78
550bcc78
550bcc78
550bcc78
550bcc78
550bcc78
550bcc78
550bcc78
550bcc78
550bcc78
550bcc78
550bcc78
550bcc78
550bcc78
550bcc78
550bcc78
550bcc78
550bcc78
550bcc78
550bcc78
550bcc78
550bcc78
550bcc78
550bcc78
550bcc78
550bcc78
550bcc78
550bcc78
550bcc78
550bcc78
550bcc78
550bcc78
550bcc78
550bcc78
550bcc78
550bcc78
550bcc78
550bcc78
550bcc78
550bcc78
550bcc78
550bcc78
550bcc78
550bcc78
550bcc78
550bcc78
550bcc78
550bcc78
550bcc78
550bcc78
550bcc78
550bcc78
550bcc78
550bcc78
550bcc78
550bcc78
550bcc78
550bcc78
550bcc78
550bcc78
550bcc78
550bcc78
550bcc78
550bcc78
550bcc78
550bcc78
550bcc78
550bcc78
550bcc78
550bcc78
550bcc78
550bcc78
550bcc78
550bcc78
550bcc78
550bcc78
550bcc78
550bcc78
550bcc78
550bcc78
550bcc78
550bcc78
550bcc78
550bcc78
550bcc78
550bcc78
550bcc78
550bcc78
550bcc78
550bcc78
550bcc78
550bcc78
550bcc78
550bcc78
550bcc78
550bcc78
550bcc78
550bcc78
550bcc78
550bcc78
550bcc78
550bcc78
550bcc78
550bcc78
550bcc78
550bcc78
550bcc78
550bcc78
550bcc78
550bcc78
550bcc78
550bcc78
550bcc78
550bcc78
550bcc78
550bcc78
550bcc78
550bcc78
550bcc78
550bcc78
550bcc78
550bcc78
550bcc78
550bcc78
550bcc78
550bcc78
550bcc78
550bcc78
550bcc78
550bcc78
550bcc78
550bcc78
550bcc78
550bcc78
550bcc78
550bcc78
550bcc78
550bcc78
550bcc78
550bcc78
550bcc78
550bcc78
550bcc78
550bcc78
550bcc78
550bcc78
550bcc78
550bcc78
550bcc78
550bcc78
550bcc78
550bcc78
550bcc78
550bcc78
550bcc78
550bcc78
550bcc78
550bcc78
550bcc78
550bcc78
550bcc78
550bcc78
550bcc78
550bcc78
550bcc78
550bcc78
550bcc78
550bcc78
550bcc78
550bcc78
550bcc78
550bcc78
550bcc78
550bcc78
550bcc78
550bcc78
550bcc78
550bcc78
550bcc78
550bcc78
550bcc78
550bcc78
550bcc78
550bcc78
550bcc78
550bcc78
550bcc78
550bcc78
550bcc78
550bcc78
550bcc78
550bcc78
550bcc78
550bcc78
550bcc78
550bcc78
550bcc78
550bcc78
550bcc78
550bcc78
550bcc78
550bcc78
550bcc78
550bcc78
550bcc78
550bcc78
550bcc78
550bcc78
550bcc78
550bcc78
550bcc78
550bcc78
550bcc78
550bcc78
550bcc78
550bcc78
550bcc78
550bcc78
550bcc78
550bcc78
550bcc78
550bcc78
550bcc78
550bcc78
550bcc78
550bcc78
550bcc78
550bcc78
550bcc78
550bcc78
550bcc78
550bcc78
550bcc78
550bcc78
550bcc78
550bcc78
550bcc78
550bcc78
550bcc78
550bcc78
550bcc78
550bcc78
550bcc78
550bcc78
550bcc78
550bcc78
550bcc78
550bcc78
550bcc78
550bcc78
550bcc78
550bcc78
550bcc78
550bcc78
550bcc78
550bcc78
550bcc78
550bcc78
550bcc78
550bcc78
550bcc78
550bcc78
550bcc78
550bcc78
550bcc78
550bcc78
550bcc78
550bcc78
550bcc78
550bcc78
550bcc78
550bcc78
550bcc78
550bcc78
550bcc78
550bcc78
550bcc78
550bcc78
550bcc78
550bcc78
550bcc78
550bcc78
550bcc78
550bcc78
550bcc78
550bcc78
550bcc78
550bcc78
550bcc78
550bcc78
550bcc78
550bcc78
550bcc78
550bcc78
550bcc78
550bcc78
550bcc78
550bcc78
550bcc78
550bcc78
550bcc78
550bcc78
550bcc78
550bcc78
550bcc78
550bcc78
550bcc78
550bcc78
550bcc78
550bcc78
550bcc78
550bcc78
550bcc78
550bcc78
550bcc78
550bcc78
550bcc78
550bcc78
550bcc78
550bcc78
550bcc78
550bcc78
550bcc78
550bcc78
550bcc78
550bcc78
550bcc78
550bcc78
550bcc78
550bcc78
550bcc78
550bcc78
550bcc78
550bcc78
550bcc78
550bcc78
550bcc78
550bcc78
550bcc78
550bcc78
550bcc78
550bcc78
550bcc78
550bcc78
550bcc78
550bcc78
550bcc78
550bcc78
550bcc78
550bcc78
550bcc78
550bcc78
550bcc78
550bcc78
550bcc78
550bcc78
550bcc78
550bcc78
550bcc78
550bcc78
550bcc78
550bcc78
550bcc78
550bcc78
550bcc78
550bcc78
550bcc78
550bcc78
550bcc78
550bcc78
550bcc78
550bcc78
550bcc78
550bcc78
550bcc78
550bcc78
550bcc78
550bcc78
550bcc78
550bcc78
550bcc78
550bcc78
550bcc78
550bcc78
550bcc78
550bcc78
550bcc78
550bcc78
550bcc78
550bcc78
550bcc78
550bcc78
550bcc78
550bcc78
550bcc78
550bcc78
550bcc78
550bcc78
550bcc78
550bcc78
550bcc78
550bcc78
550bcc78
550bcc78
550bcc78
550bcc78
550bcc78
550bcc78
550bcc78
550bcc78
550bcc78
550bcc78
550bcc78
550bcc78
550bcc78
550bcc78
550bcc78
550bcc78
550bcc78
550bcc78
550bcc78
550bcc78
550bcc78
550bcc78
550bcc78
550bcc78
550bcc78
550bcc78
550bcc78
550bcc78
550bcc78
550bcc78
550bcc78
550bcc78
550bcc78
550bcc78
550bcc78
550bcc78
550bcc78
550bcc78
550bcc78
550bcc78
550bcc78
550bcc78
550bcc78
550bcc78
550bcc78
550bcc78
550bcc78
550bcc78
550bcc78
550bcc78
550bcc78
550bcc78
550bcc78
550bcc78
550bcc78
550bcc78
550bcc78
550bcc78
550bcc78
550bcc78
550bcc78
550bcc78
550bcc78
550bcc78
550bcc78
550bcc78
550bcc78
550bcc78
550bcc78
550bcc78
550bcc78
550bcc78
550bcc78
550bcc78
550bcc78
550bcc78
550bcc78
550bcc78
550bcc78
550bcc78
550bcc78
550bcc78
550bcc78
550bcc78
550bcc78
550bcc78
550bcc78
550bcc78
550bcc78
550bcc78
550bcc78
550bcc78
550bcc78
550bcc78
550bcc78
550bcc78
550bcc78
550bcc78
550bcc78
550bcc78
550bcc78
550bcc78
550bcc78
550bcc78
550bcc78
550bcc78
550bcc78
550bcc78
550bcc78
550bcc78
550bcc78
550bcc78
550bcc78
550bcc78
550bcc78
550bcc78
550bcc78
550bcc78
550bcc78
550bcc78
550bcc78
550bcc78
550bcc78
550bcc78
550bcc78
550bcc78
550bcc78
550bcc78
550bcc78
550bcc78
550bcc78
550bcc78
550bcc78
550bcc78
550bcc78
550bcc78
550bcc78
550bcc78
550bcc78
550bcc78
550bcc78
550bcc78
550bcc78
550bcc78
550bcc78
550bcc78
550bcc78
550bcc78
550bcc78
550bcc78
550bcc78
550bcc78
550bcc78
550bcc78
550bcc78
550bcc78
550bcc78
550bcc78
550bcc78
550bcc78
550bcc78
550bcc78
550bcc78
550bcc78
550bcc78
550bcc78
550bcc78
550bcc78
550bcc78
550bcc78
550bcc78
550bcc78
550bcc78
550bcc78
550bcc78
550bcc78
550bcc78
550bcc78
550bcc78
550bcc78
550bcc78
550bcc78
550bcc78
550bcc78
550bcc78
550bcc78
550bcc78
550bcc78
550bcc78
550bcc78
550bcc78
550bcc78
550bcc78
550bcc78
550bcc78
550bcc78
550bcc78
550bcc78
550bcc78
550bcc78
550bcc78
550bcc78
550bcc78
550bcc78
550bcc78
550bcc78
550bcc78
550bcc78
550bcc78
550bcc78
550bcc78
550bcc78
550bcc78
550bcc78
550bcc78
550bcc78
550bcc78
550bcc78
550bcc78
550bcc78
550bcc78
550bcc78
550bcc78
550bcc78
550bcc78
550bcc78
550bcc78
550bcc78
550bcc78
550bcc78
550bcc78
550bcc78
550bcc78
550bcc78
550bcc78
550bcc78
550bcc78
550bcc78
550bcc78
550bcc78
550bcc78
550bcc78
550bcc78
550bcc78
550bcc78
550bcc78
550bcc78
550bcc78
550bcc78
550bcc78
550bcc78
550bcc78
550bcc78
550bcc78
550bcc78
550bcc78
550bcc78
550bcc78
550bcc78
550bcc78
550bcc78
550bcc78
550bcc78
550bcc78
550bcc78
550bcc78
550bcc78
550bcc78
550bcc78
550bcc78
550bcc78
550bcc78
550bcc78
550bcc78
550bcc78
550bcc78
550bcc78
550bcc78
550bcc78
550bcc78
550bcc78
550bcc78
550bcc78
550bcc78
550bcc78
550bcc78
550bcc78
550bcc78
550bcc78
550bcc78
550bcc78
550bcc78
550bcc78
550bcc78
550bcc78
550bcc78
550bcc78
550bcc78
550bcc78
550bcc78
550bcc78
550bcc78
550bcc78
550bcc78
550bcc78
550bcc78
550bcc78
550bcc78
550bcc78
550bcc78
550bcc78
550bcc78
550bcc78
550bcc78
550bcc78
550bcc78
550bcc78
550bcc78
550bcc78
550bcc78
550bcc78
550bcc78
550bcc78
550bcc78
550bcc78
550bcc78
550bcc78
550bcc78
550bcc78
550bcc78
550bcc78
550bcc78
550bcc78
550bcc78
550bcc78
550bcc78
550bcc78
550bcc78
550bcc78
550bcc78
550bcc78
550bcc78
550bcc78
550bcc78
550bcc78
550bcc78
550bcc78
550bcc78
550bcc78
550bcc78
550bcc78
550bcc78
550bcc78
550bcc78
550bcc78
550bcc78
550bcc78
550bcc78
550bcc78
550bcc78
550bcc78
550bcc78
550bcc78
550bcc78
550bcc78
550bcc78
550bcc78
550bcc78
550bcc78
550bcc78
550bcc78
550bcc78
550bcc78
550bcc78
550bcc78
550bcc78
550bcc78
550bcc78
550bcc78
550bcc78
550bcc78
550bcc78
550bcc78
550bcc78
550bcc78
550bcc78
550bcc78
550bcc78
550bcc78
550bcc78
550bcc78
550bcc78
550bcc78
550bcc78
550bcc78
550bcc78
550bcc78
550bcc78
550bcc78
550bcc78
550bcc78
550bcc78
550bcc78
550bcc78
550bcc78
550bcc78
550bcc78
550bcc78
550bcc78
550bcc78
550bcc78
550bcc78
550bcc78
550bcc78
550bcc78
550bcc78
550bcc78
550bcc78
550bcc78
550bcc78
550bcc78
550bcc78
550bcc78
550bcc78
550bcc78
550bcc78
550bcc78
550bcc78
550bcc78
550bcc78
550bcc78
550bcc78
550bcc78
550bcc78
550bcc78
550bcc78
550bcc78
550bcc78
550bcc78
550bcc78
550bcc78
550bcc78
550bcc78
550bcc78
550bcc78
550bcc78
550bcc78
550bcc78
550bcc78
550bcc78
550bcc78
550bcc78
550bcc78
550bcc78
550bcc78
550bcc78
550bcc78
550bcc78
550bcc78
550bcc78
550bcc78
550bcc78
550bcc78
550bcc78
550bcc78
550bcc78
550bcc78
550bcc78
550bcc78
550bcc78
550bcc78
550bcc78
550bcc78
550bcc78
550bcc78
550bcc78
550bcc78
550bcc78
550bcc78
550bcc78
550bcc78
550bcc78
550bcc78
550bcc78
550bcc78
550bcc78
550bcc78
550bcc78
550bcc78
550bcc78
550bcc78
550bcc78
550bcc78
550bcc78
550bcc78
550bcc78
550bcc78
550bcc78
550bcc78
550bcc78
550bcc78
550bcc78
550bcc78
550bcc78
550bcc78
550bcc78
550bcc78
550bcc78
550bcc78
550bcc78
550bcc78
550bcc78
550bcc78
550bcc78
550bcc78
550bcc78
550bcc78
550bcc78
550bcc78
550bcc78
550bcc78
550bcc78
550bcc78
550bcc78
550bcc78
550bcc78
550bcc78
550bcc78
550bcc78
550bcc78
550bcc78
550bcc78
550bcc78
550bcc78
550bcc78
550bcc78
550bcc78
550bcc78
550bcc78
550bcc78
550bcc78
550bcc78
550bcc78
550bcc78
550bcc78
550bcc78
550bcc78
550bcc78
550bcc78
550bcc78
550bcc78
550bcc78
550bcc78
550bcc78
550bcc78
550bcc78
550bcc78
550bcc78
550bcc78
550bcc78
550bcc78
550bcc78
550bcc78
550bcc78
550bcc78
550bcc78
550bcc78
550bcc78
550bcc78
550bcc78
550bcc78
550bcc78
550bcc78
550bcc78
550bcc78
550bcc78
550bcc78
550bcc78
550bcc78
550bcc78
550bcc78
550bcc78
550bcc78
550bcc78
550bcc78
550bcc78
550bcc78
550bcc78
550bcc78
550bcc78
550bcc78
550bcc78
550bcc78
550bcc78
550bcc78
550bcc78
550bcc78
550bcc78
550bcc78
550bcc78
550bcc78
550bcc78
550bcc78
550bcc78
550bcc78
550bcc78
550bcc78
550bcc78
550bcc78
550bcc78
550bcc78
550bcc78
550bcc78
550bcc78
550bcc78
550bcc78
550bcc78
550bcc78
550bcc78
550bcc78
550bcc78
550bcc78
550bcc78
550bcc78
550bcc78
550bcc78
550bcc78
550bcc78
550bcc78
550bcc78
550bcc78
550bcc78
550bcc78
550bcc78
550bcc78
550bcc78
550bcc78
550bcc78
550bcc78
550bcc78
550bcc78
550bcc78
550bcc78
550bcc78
550bcc78
550bcc78
550bcc78
550bcc78
550bcc78
550bcc78
550bcc78
550bcc78
550bcc78
550bcc78
550bcc78
550bcc78
550bcc78
550bcc78
550bcc78
550bcc78
550bcc78
550bcc78
550bcc78
550bcc78
550bcc78
550bcc78
550bcc78
550bcc78
550bcc78
550bcc78
550bcc78
550bcc78
550bcc78
550bcc78
550bcc78
550bcc78
550bcc78
550bcc78
550bcc78
550bcc78
550bcc78
550bcc78
550bcc78
550bcc78
550bcc78
550bcc78
550bcc78
550bcc78
550bcc78
550bcc78
550bcc78
550bcc78
550bcc78
550bcc78
550bcc78
550bcc78
550bcc78
550bcc78
550bcc78
550bcc78
550bcc78
550bcc78
550bcc78
550bcc78
550bcc78
550bcc78
550bcc78
550bcc78
550bcc78
550bcc78
550bcc78
550bcc78
550bcc78
550bcc78
550bcc78
550bcc78
550bcc78
550bcc78
550bcc78
550bcc78
550bcc78
550bcc78
550bcc78
550bcc78
550bcc78
550bcc78
550bcc78
550bcc78
550bcc78
550bcc78
550bcc78
550bcc78
550bcc78
550bcc78
550bcc78
550bcc78
550bcc78
550bcc78
550bcc78
550bcc78
550bcc78
550bcc78
550bcc78
550bcc78
550bcc78
550bcc78
550bcc78
550bcc78
550bcc78
550bcc78
550bcc78
550bcc78
550bcc78
550bcc78
550bcc78
550bcc78
550bcc78
550bcc78
550bcc78
550bcc78
550bcc78
550bcc78
550bcc78
550bcc78
550bcc78
550bcc78
550bcc78
550bcc78
550bcc78
550bcc78
550bcc78
550bcc78
550bcc78
550bcc78
550bcc78
550bcc78
550bcc78
550bcc78
550bcc78
550bcc78
550bcc78
550bcc78
550bcc78
550bcc78
550bcc78
550bcc78
550bcc78
550bcc78
550bcc78
550bcc78
550bcc78
550bcc78
550bcc78
550bcc78
550bcc78
550bcc78
550bcc78
550bcc78
550bcc78
550bcc78
550bcc78
550bcc78
550bcc78
550bcc78
550bcc78
550bcc78
550bcc78
550bcc78
550bcc78
550bcc78
550bcc78
550bcc78
550bcc78
550bcc78
550bcc78
550bcc78
550bcc78
550bcc78
550bcc78
550bcc78
550bcc78
550bcc78
550bcc78
550bcc78
550bcc78
550bcc78
550bcc78
550bcc78
550bcc78
550bcc78
550bcc78
550bcc78
550bcc78
550bcc78
550bcc78
550bcc78
550bcc78
550bcc78
550bcc78
550bcc78
550bcc78
550bcc78
550bcc78
550bcc78
550bcc78
550bcc78
550bcc78
550bcc78
550bcc78
550bcc78
550bcc78
550bcc78
550bcc78
550bcc78
550bcc78
550bcc78
550bcc78
550bcc78
550bcc78
550bcc78
550bcc78
550bcc78
550bcc78
550bcc78
550bcc78
550bcc78
550bcc78
550bcc78
550bcc78
550bcc78
550bcc78
550bcc78
550bcc78
550bcc78
550bcc78
550bcc78
550bcc78
550bcc78
550bcc78
550bcc78
550bcc78
550bcc78
550bcc78
550bcc78
550bcc78
550bcc78
550bcc78
550bcc78
550bcc78
550bcc78
550bcc78
550bcc78
550bcc78
550bcc78
550bcc78
550bcc78
550bcc78
550bcc78
550bcc78
550bcc78
550bcc78
550bcc78
550bcc78
550bcc78
550bcc78
550bcc78
550bcc78
550bcc78
550bcc78
550bcc78
550bcc78
550bcc78
550bcc78
550bcc78
550bcc78
550bcc78
550bcc78
550bcc78
550bcc78
550bcc78
550bcc78
550bcc78
550bcc78
550bcc78
550bcc78
550bcc78
550bcc78
550bcc78
550bcc78
550bcc78
550bcc78
550bcc78
550bcc78
550bcc78
550bcc78
550bcc78
550bcc78
550bcc78
550bcc78
550bcc78
550bcc78
550bcc78
550bcc78
550bcc78
550bcc78
550bcc78
550bcc78
550bcc78
550bcc78
550bcc78
550bcc78
550bcc78
550bcc78
550bcc78
550bcc78
550bcc78
550bcc78
550bcc78
550bcc78
550bcc78
550bcc78
550bcc78
550bcc78
550bcc78
550bcc78
550bcc78
550bcc78
550bcc78
550bcc78
550bcc78
550bcc78
550bcc78
550bcc78
550bcc78
550bcc78
550bcc78
550bcc78
550bcc78
550bcc78
550bcc78
550bcc78
550bcc78
550bcc78
550bcc78
550bcc78
550bcc78
550bcc78
550bcc78
550bcc78
550bcc78
550bcc78
550bcc78
550bcc78
550bcc78
550bcc78
550bcc78
550bcc78
550bcc78
550bcc78
550bcc78
550bcc78
550bcc78
550bcc78
550bcc78
550bcc78
550bcc78
550bcc78
550bcc78
550bcc78
550bcc78
550bcc78
550bcc78
550bcc78
550bcc78
550bcc78
550bcc78
550bcc78
550bcc78
550bcc78
550bcc78
550bcc78
550bcc78
550bcc78
550bcc78
550bcc78
550bcc78
550bcc78
550bcc78
550bcc78
550bcc78
550bcc78
550bcc78
550bcc78
550bcc78
550bcc78
550bcc78
550bcc78
550bcc78
550bcc78
550bcc78
550bcc78
550bcc78
550bcc78
550bcc78
550bcc78
550bcc78
550bcc78
550bcc78
550bcc78
550bcc78
550bcc78
550bcc78
550bcc78
550bcc78
550bcc78
550bcc78
550bcc78
550bcc78
550bcc78
550bcc78
550bcc78
550bcc78
550bcc78
550bcc78
550bcc78
550bcc78
550bcc78
550bcc78
550bcc78
550bcc78
550bcc78
550bcc78
550bcc78
550bcc78
550bcc78
550bcc78
550bcc78
550bcc78
550bcc78
550bcc78
550bcc78
550bcc78
550bcc78
550bcc78
550bcc78
550bcc78
550bcc78
550bcc78
550bcc78
550bcc78
550bcc78
550bcc78
550bcc78
550bcc78
550bcc78
550bcc78
550bcc78
550bcc78
550bcc78
550bcc78
550bcc78
550bcc78
550bcc78
550bcc78
550bcc78
550bcc78
550bcc78
550bcc78
550bcc78
550bcc78
550bcc78
550bcc78
550bcc78
550bcc78
550bcc78
550bcc78
550bcc78
550bcc78
550bcc78
550bcc78
550bcc78
550bcc78
550bcc78
550bcc78
550bcc78
550bcc78
550bcc78
550bcc78
550bcc78
550bcc78
550bcc78
550bcc78
550bcc78
550bcc78
550bcc78
550bcc78
550bcc78
550bcc78
550bcc78
550bcc78
550bcc78
550bcc78
550bcc78
550bcc78
550bcc78
550bcc78
550bcc78
550bcc78
550bcc78
550bcc78
550bcc78
550bcc78
550bcc78
550bcc78
550bcc78
550bcc78
550bcc78
550bcc78
550bcc78
550bcc78
550bcc78
550bcc78
550bcc78
550bcc78
550bcc78
550bcc78
550bcc78
550bcc78
550bcc78
550bcc78
550bcc78
550bcc78
550bcc78
550bcc78
550bcc78
550bcc78
550bcc78
550bcc78
550bcc78
550bcc78
550bcc78
550bcc78
550bcc78
550bcc78
550bcc78
550bcc78
550bcc78
550bcc78
550bcc78
550bcc78
550bcc78
550bcc78
550bcc78
550bcc78
550bcc78
550bcc78
550bcc78
550bcc78
550bcc78
550bcc78
550bcc78
550bcc78
550bcc78
550bcc78
550bcc78
550bcc78
550bcc78
550bcc78
550bcc78
550bcc78
550bcc78
550bcc78
550bcc78
550bcc78
550bcc78
550bcc78
550bcc78
550bcc78
550bcc78
550bcc78
550bcc78
550bcc78
550bcc78
550bcc78
550bcc78
550bcc78
550bcc78
550bcc78
550bcc78
550bcc78
550bcc78
550bcc78
550bcc78
550bcc78
550bcc78
550bcc78
550bcc78
550bcc78
550bcc78
550bcc78
550bcc78
550bcc78
550bcc78
550bcc78
550bcc78
550bcc78
550bcc78
550bcc78
550bcc78
550bcc78
550bcc78
550bcc78
550bcc78
550bcc78
550bcc78
550bcc78
550bcc78
550bcc78
550bcc78
550bcc78
550bcc78
550bcc78
550bcc78
550bcc78
550bcc78
550bcc78
550bcc78
550bcc78
550bcc78
550bcc78
550bcc78
550bcc78
550bcc78
550bcc78
550bcc78
550bcc78
550bcc78
550bcc78
550bcc78
550bcc78
550bcc78
550bcc78
550bcc78
550bcc78
550bcc78
550bcc78
550bcc78
550bcc78
550bcc78
550bcc78
550bcc78
550bcc78
550bcc78
550bcc78
550bcc78
550bcc78
550bcc78
550bcc78
550bcc78
550bcc78
550bcc78
550bcc78
550bcc78
550bcc78
550bcc78
550bcc78
550bcc78
550bcc78
550bcc78
550bcc78
550bcc78
550bcc78
550bcc78
550bcc78
550bcc78
550bcc78
550bcc78
550bcc78
550bcc78
550bcc78
550bcc78
550bcc78
550bcc78
550bcc78
550bcc78
550bcc78
550bcc78
550bcc78
550bcc78
550bcc78
550bcc78
550bcc78
550bcc78
550bcc78
550bcc78
550bcc78
550bcc78
550bcc78
550bcc78
550bcc78
550bcc78
550bcc78
550bcc78
550bcc78
550bcc78
550bcc78
550bcc78
550bcc78
550bcc78
550bcc78
550bcc78
550bcc78
550bcc78
550bcc78
550bcc78
550bcc78
550bcc78
550bcc78
550bcc78
550bcc78
550bcc78
550bcc78
550bcc78
550bcc78
550bcc78
550bcc78
550bcc78
550bcc78
550bcc78
550bcc78
550bcc78
550bcc78
550bcc78
550bcc78
550bcc78
550bcc78
550bcc78
550bcc78
550bcc78
550bcc78
550bcc78
550bcc78
550bcc78
550bcc78
550bcc78
550bcc78
550bcc78
550bcc78
550bcc78
550bcc78
550bcc78
550bcc78
550bcc78
550bcc78
550bcc78
550bcc78
550bcc78
550bcc78
550bcc78
550bcc78
550bcc78
550bcc78
550bcc78
550bcc78
550bcc78
550bcc78
550bcc78
550bcc78
550bcc78
550bcc78
550bcc78
550bcc78
550bcc78
550bcc78
550bcc78
550bcc78
550bcc78
550bcc78
550bcc78
550bcc78
550bcc78
550bcc78
550bcc78
550bcc78
550bcc78
550bcc78
550bcc78
550bcc78
550bcc78
550bcc78
550bcc78
550bcc78
550bcc78
550bcc78
550bcc78
550bcc78
550bcc78
550bcc78
550bcc78
550bcc78
550bcc78
550bcc78
550bcc78
550bcc78
550bcc78
550bcc78
550bcc78
550bcc78
550bcc78
550bcc78
550bcc78
550bcc78
550bcc78
550bcc78
550bcc78
550bcc78
550bcc78
550bcc78
550bcc78
550bcc78
550bcc78
550bcc78
550bcc78
550bcc78
550bcc78
550bcc78
550bcc78
550bcc78
550bcc78
550bcc78
550bcc78
550bcc78
550bcc78
550bcc78
550bcc78
550bcc78
550bcc78
550bcc78
550bcc78
550bcc78
550bcc78
550bcc78
550bcc78
550bcc78
550bcc78
550bcc78
550bcc78
550bcc78
550bcc78
550bcc78
550bcc78
550bcc78
550bcc78
550bcc78
550bcc78
550bcc78
550bcc78
550bcc78
550bcc78
550bcc78
550bcc78
550bcc78
550bcc78
550bcc78
550bcc78
550bcc78
550bcc78
550bcc78
550bcc78
550bcc78
550bcc78
550bcc78
550bcc78
550bcc78
550bcc78
550bcc78
550bcc78
550bcc78
550bcc78
550bcc78
550bcc78
550bcc78
550bcc78
550bcc78
550bcc78
550bcc78
550bcc78
550bcc78
550bcc78
550bcc78
550bcc78
550bcc78
550bcc78
550bcc78
550bcc78
550bcc78
550bcc78
550bcc78
550bcc78
550bcc78
550bcc78
550bcc78
550bcc78
550bcc78
550bcc78
550bcc78
550bcc78
550bcc78
550bcc78
550bcc78
550bcc78
550bcc78
550bcc78
550bcc78
550bcc78
550bcc78
550bcc78
550bcc78
550bcc78
550bcc78
550bcc78
550bcc78
550bcc78
550bcc78
550bcc78
550bcc78
550bcc78
550bcc78
550bcc78
550bcc78
550bcc78
550bcc78
550bcc78
550bcc78
550bcc78
550bcc78
550bcc78
550bcc78
550bcc78
550bcc78
550bcc78
550bcc78
550bcc78
550bcc78
550bcc78
550bcc78
550bcc78
550bcc78
550bcc78
550bcc78
550bcc78
550bcc78
550bcc78
550bcc78
550bcc78
550bcc78
550bcc78
550bcc78
550bcc78
550bcc78
550bcc78
550bcc78
550bcc78
550bcc78
550bcc78
550bcc78
550bcc78
550bcc78
550bcc78
550bcc78
550bcc78
550bcc78
550bcc78
550bcc78
550bcc78
550bcc78
550bcc78
550bcc78
550bcc78
550bcc78
550bcc78
550bcc78
550bcc78
550bcc78
550bcc78
550bcc78
550bcc78
550bcc78
550bcc78
550bcc78
550bcc78
550bcc78
550bcc78
550bcc78
550bcc78
550bcc78
550bcc78
550bcc78
550bcc78
550bcc78
550bcc78
550bcc78
550bcc78
550bcc78
550bcc78
550bcc78
550bcc78
550bcc78
550bcc78
550bcc78
550bcc78
550bcc78
550bcc78
550bcc78
550bcc78
550bcc78
550bcc78
550bcc78
550bcc78
550bcc78
550bcc78
550bcc78
550bcc78
550bcc78
550bcc78
550bcc78
550bcc78
550bcc78
550bcc78
550bcc78
550bcc78
550bcc78
550bcc78
550bcc78
550bcc78
550bcc78
550bcc78
550bcc78
550bcc78
550bcc78
550bcc78
550bcc78
550bcc78
550bcc78
550bcc78
550bcc78
550bcc78
550bcc78
550bcc78
550bcc78
550bcc78
550bcc78
550bcc78
550bcc78
550bcc78
550bcc78
550bcc78
550bcc78
550bcc78
550bcc78
550bcc78
550bcc78
550bcc78
550bcc78
550bcc78
550bcc78
550bcc78
550bcc78
550bcc78
550bcc78
550bcc78
550bcc78
550bcc78
550bcc78
550bcc78
550bcc78
550bcc78
550bcc78
550bcc78
550bcc78
550bcc78
550bcc78
550bcc78
550bcc78
550bcc78
550bcc78
550bcc78
550bcc78
550bcc78
550bcc78
550bcc78
550bcc78
550bcc78
550bcc78
550bcc78
550bcc78
550bcc78
550bcc78
550bcc78
550bcc78
550bcc78
550bcc78
550bcc78
550bcc78
550bcc78
550bcc78
550bcc78
550bcc78
550bcc78
550bcc78
550bcc78
550bcc78
550bcc78
550bcc78
550bcc78
550bcc78
550bcc78
550bcc78
550bcc78
550bcc78
550bcc78
550bcc78
550bcc78
550bcc78
550bcc78
550bcc78
550bcc78
550bcc78
550bcc78
550bcc78
550bcc78
550bcc78
550bcc78
550bcc78
550bcc78
550bcc78
550bcc78
550bcc78
550bcc78
550bcc78
550bcc78
550bcc78
550bcc78
550bcc78
550bcc78
550bcc78
550bcc78
550bcc78
550bcc78
550bcc78
550bcc78
550bcc78
550bcc78
550bcc78
550bcc78
550bcc78
550bcc78
550bcc78
550bcc78
550bcc78
550bcc78
550bcc78
550bcc78
550bcc78
550bcc78
550bcc78
550bcc78
550bcc78
550bcc78
550bcc78
550bcc78
550bcc78
550bcc78
550bcc78
550bcc78
550bcc78
550bcc78
550bcc78
550bcc78
550bcc78
550bcc78
550bcc78
550bcc78
550bcc78
550bcc78
550bcc78
550bcc78
550bcc78
550bcc78
550bcc78
550bcc78
550bcc78
550bcc78
550bcc78
550bcc78
550bcc78
550bcc78
550bcc78
550bcc78
550bcc78
550bcc78
550bcc78
550bcc78
550bcc78
550bcc78
550bcc78
550bcc78
550bcc78
550bcc78
550bcc78
550bcc78
550bcc78
550bcc78
550bcc78
550bcc78
550bcc78
550bcc78
550bcc78
550bcc78
550bcc78
550bcc78
550bcc78
550bcc78
550bcc78
550bcc78
550bcc78
550bcc78
550bcc78
550bcc78
550bcc78
550bcc78
550bcc78
550bcc78
550bcc78
550bcc78
550bcc78
550bcc78
550bcc78
550bcc78
550bcc78
550bcc78
550bcc78
550bcc78
550bcc78
550bcc78
550bcc78
550bcc78
550bcc78
550bcc78
550bcc78
550bcc78
550bcc78
550bcc78
550bcc78
550bcc78
550bcc78
550bcc78
550bcc78
550bcc78
550bcc78
550bcc78
550bcc78
550bcc78
550bcc78
550bcc78
550bcc78
550bcc78
550bcc78
550bcc78
550bcc78
550bcc78
550bcc78
550bcc78
550bcc78
550bcc78
550bcc78
550bcc78
550bcc78
550bcc78
550bcc78
550bcc78
550bcc78
550bcc78
550bcc78
550bcc78
550bcc78
550bcc78
550bcc78
550bcc78
550bcc78
550bcc78
550bcc78
550bcc78
550bcc78
550bcc78
550bcc78
550bcc78
550bcc78
550bcc78
550bcc78
550bcc78
550bcc78
550bcc78
550bcc78
550bcc78
550bcc78
550bcc78
550bcc78
550bcc78
550bcc78
550bcc78
550bcc78
550bcc78
550bcc78
550bcc78
550bcc78
550bcc78
550bcc78
550bcc78
550bcc78
550bcc78
550bcc78
550bcc78
550bcc78
550bcc78
550bcc78
550bcc78
550bcc78
550bcc78
550bcc78
550bcc78
550bcc78
550bcc78
550bcc78
550bcc78
550bcc78
550bcc78
550bcc78
550bcc78
550bcc78
550bcc78
550bcc78
550bcc78
550bcc78
550bcc78
550bcc78
550bcc78
550bcc78
550bcc78
550bcc78
550bcc78
550bcc78
550bcc78
550bcc78
550bcc78
550bcc78
550bcc78
550bcc78
550bcc78
550bcc78
550bcc78
550bcc78
550bcc78
550bcc78
550bcc78
550bcc78
550bcc78
550bcc78
550bcc78
550bcc78
550bcc78
550bcc78
550bcc78
550bcc78
550bcc78
550bcc78
550bcc78
550bcc78
550bcc78
550bcc78
550bcc78
550bcc78
550bcc78
550bcc78
550bcc78
550bcc78
550bcc78
550bcc78
550bcc78
550bcc78
550bcc78
550bcc78
550bcc78
550bcc78
550bcc78
550bcc78
550bcc78
550bcc78
550bcc78
550bcc78
550bcc78
550bcc78
550bcc78
550bcc78
550bcc78
550bcc78
550bcc78
550bcc78
550bcc78
550bcc78
550bcc78
550bcc78
550bcc78
550bcc78
550bcc78
550bcc78
550bcc78
550bcc78
550bcc78
550bcc78
550bcc78
550bcc78
550bcc78
550bcc78
550bcc78
550bcc78
550bcc78
550bcc78
550bcc78
550bcc78
550bcc78
550bcc78
550bcc78
550bcc78
550bcc78
550bcc78
550bcc78
550bcc78
550bcc78
550bcc78
550bcc78
550bcc78
550bcc78
550bcc78
550bcc78
550bcc78
550bcc78
550bcc78
550bcc78
550bcc78
550bcc78
550bcc78
550bcc78
550bcc78
550bcc78
550bcc78
550bcc78
550bcc78
550bcc78
550bcc78
550bcc78
550bcc78
550bcc78
550bcc78
550bcc78
550bcc78
550bcc78
550bcc78
550bcc78
550bcc78
550bcc78
550bcc78
550bcc78
550bcc78
550bcc78
550bcc78
550bcc78
550bcc78
550bcc78
550bcc78
550bcc78
550bcc78
550bcc78
550bcc78
550bcc78
550bcc78
550bcc78
550bcc78
550bcc78
550bcc78
550bcc78
550bcc78
550bcc78
550bcc78
550bcc78
550bcc78
550bcc78
550bcc78
550bcc78
550bcc78
550bcc78
550bcc78
550bcc78
550bcc78
550bcc78
550bcc78
550bcc78
550bcc78
550bcc78
550bcc78
550bcc78
550bcc78
550bcc78
550bcc78
550bcc78
550bcc78
550bcc78
550bcc78
550bcc78
550bcc78
550bcc78
550bcc78
550bcc78
550bcc78
550bcc78
550bcc78
550bcc78
550bcc78
550bcc78
550bcc78
550bcc78
550bcc78
550bcc78
550bcc78
550bcc78
550bcc78
550bcc78
550bcc78
550bcc78
550bcc78
550bcc78
550bcc78
550bcc78
550bcc78
550bcc78
550bcc78
550bcc78
550bcc78
550bcc78
550bcc78
550bcc78
550bcc78
550bcc78
550bcc78
550bcc78
550bcc78
550bcc78
550bcc78
550bcc78
550bcc78
550bcc78
550bcc78
550bcc78
550bcc78
550bcc78
550bcc78
550bcc78
550bcc78
550bcc78
550bcc78
550bcc78
550bcc78
550bcc78
550bcc78
550bcc78
550bcc78
550bcc78
550bcc78
550bcc78
550bcc78
550bcc78
550bcc78
550bcc78
550bcc78
550bcc78
550bcc78
550bcc78
550bcc78
550bcc78
550bcc78
550bcc78
550bcc78
550bcc78
550bcc78
550bcc78
550bcc78
550bcc78
550bcc78
550bcc78
550bcc78
550bcc78
550bcc78
550bcc78
550bcc78
550bcc78
550bcc78
550bcc78
550bcc78
550bcc78
550bcc78
550bcc78
550bcc78
550bcc78
550bcc78
550bcc78
550bcc78
550bcc78
550bcc78
550bcc78
550bcc78
550bcc78
550bcc78
550bcc78
550bcc78
550bcc78
550bcc78
550bcc78
550bcc78
550bcc78
550bcc78
550bcc78
550bcc78
550bcc78
550bcc78
550bcc78
550bcc78
550bcc78
550bcc78
550bcc78
550bcc78
550bcc78
550bcc78
550bcc78
550bcc78
550bcc78
550bcc78
550bcc78
550bcc78
550bcc78
550bcc78
550bcc78
550bcc78
550bcc78
550bcc78
550bcc78
550bcc78
550bcc78
550bcc78
550bcc78
550bcc78
550bcc78
550bcc78
550bcc78
550bcc78
550bcc78
550bcc78
550bcc78
550bcc78
550bcc78
550bcc78
550bcc78
550bcc78
550bcc78
550bcc78
550bcc78
550bcc78
550bcc78
550bcc78
550bcc78
550bcc78
550bcc78
550bcc78
550bcc78
550bcc78
550bcc78
550bcc78
550bcc78
550bcc78
550bcc78
550bcc78
550bcc78
550bcc78
550bcc78
550bcc78
550bcc78
550bcc78
550bcc78
550bcc78
550bcc78
550bcc78
550bcc78
550bcc78
550bcc78
550bcc78
550bcc78
550bcc78
550bcc78
550bcc78
550bcc78
550bcc78
550bcc78
550bcc78
550bcc78
550bcc78
550bcc78
550bcc78
550bcc78
550bcc78
550bcc78
550bcc78
550bcc78
550bcc78
550bcc78
550bcc78
550bcc78
550bcc78
550bcc78
550bcc78
550bcc78
550bcc78
550bcc78
550bcc78
550bcc78
550bcc78
550bcc78
550bcc78
550bcc78
550bcc78
550bcc78
550bcc78
550bcc78
550bcc78
550bcc78
550bcc78
550bcc78
550bcc78
550bcc78
550bcc78
550bcc78
550bcc78
550bcc78
550bcc78
550bcc78
550bcc78
550bcc78
550bcc78
550bcc78
550bcc78
550bcc78
550bcc78
550bcc78
550bcc78
550bcc78
550bcc78
550bcc78
550bcc78
550bcc78
550bcc78
550bcc78
550bcc78
550bcc78
550bcc78
550bcc78
550bcc78
550bcc78
550bcc78
550bcc78
550bcc78
550bcc78
550bcc78
550bcc78
550bcc78
550bcc78
550bcc78
550bcc78
550bcc78
550bcc78
550bcc78
550bcc78
550bcc78
550bcc78
550bcc78
550bcc78
550bcc78
550bcc78
550bcc78
550bcc78
550bcc78
550bcc78
550bcc78
550bcc78
550bcc78
550bcc78
550bcc78
550bcc78
550bcc78
550bcc78
550bcc78
550bcc78
550bcc78
550bcc78
550bcc78
550bcc78
550bcc78
550bcc78
550bcc78
550bcc78
550bcc78
550bcc78
550bcc78
550bcc78
550bcc78
550bcc78
550bcc78
550bcc78
550bcc78
550bcc78
550bcc78
550bcc78
550bcc78
550bcc78
550bcc78
550bcc78
550bcc78
550bcc78
550bcc78
550bcc78
550bcc78
550bcc78
550bcc78
550bcc78
550bcc78
550bcc78
550bcc78
550bcc78
550bcc78
550bcc78
550bcc78
550bcc78
550bcc78
550bcc78
550bcc78
550bcc78
550bcc78
550bcc78
550bcc78
550bcc78
550bcc78
550bcc78
550bcc78
550bcc78
550bcc78
550bcc78
550bcc78
550bcc78
550bcc78
550bcc78
550bcc78
550bcc78
550bcc78
550bcc78
550bcc78
550bcc78
550bcc78
550bcc78
550bcc78
550bcc78
550bcc78
550bcc78
550bcc78
550bcc78
550bcc78
550bcc78
550bcc78
550bcc78
550bcc78
550bcc78
550bcc78
550bcc78
550bcc78
550bcc78
550bcc78
550bcc78
550bcc78
550bcc78
550bcc78
550bcc78
550bcc78
550bcc78
550bcc78
550bcc78
550bcc78
550bcc78
550bcc78
550bcc78
550bcc78
550bcc78
550bcc78
550bcc78
550bcc78
550bcc78
550bcc78
550bcc78
550bcc78
550bcc78
550bcc78
550bcc78
550bcc78
550bcc78
550bcc78
550bcc78
550bcc78
550bcc78
550bcc78
550bcc78
550bcc78
550bcc78
550bcc78
550bcc78
550bcc78
550bcc78
550bcc78
550bcc78
550bcc78
550bcc78
550bcc78
550bcc78
550bcc78
550bcc78
550bcc78
550bcc78
550bcc78
550bcc78
550bcc78
550bcc78
550bcc78
550bcc78
550bcc78
550bcc78
550bcc78
550bcc78
550bcc78
550bcc78
550bcc78
550bcc78
550bcc78
550bcc78
550bcc78
550bcc78
550bcc78
550bcc78
550bcc78
550bcc78
550bcc78
550bcc78
550bcc78
550bcc78
550bcc78
550bcc78
550bcc78
550bcc78
550bcc78
550bcc78
550bcc78
550bcc78
550bcc78
550bcc78
550bcc78
550bcc78
550bcc78
550bcc78
550bcc78
550bcc78
550bcc78
550bcc78
550bcc78
550bcc78
550bcc78
550bcc78
550bcc78
550bcc78
550bcc78
550bcc78
550bcc78
550bcc78
550bcc78
550bcc78
550bcc78
550bcc78
550bcc78
550bcc78
550bcc78
550bcc78
550bcc78
550bcc78
550bcc78
550bcc78
550bcc78
550bcc78
550bcc78
550bcc78
550bcc78
550bcc78
550bcc78
550bcc78
550bcc78
550bcc78
550bcc78
550bcc78
550bcc78
550bcc78
550bcc78
550bcc78
550bcc78
550bcc78
550bcc78
550bcc78
550bcc78
550bcc78
550bcc78
550bcc78
550bcc78
550bcc78
550bcc78
550bcc78
550bcc78
550bcc78
550bcc78
550bcc78
550bcc78
550bcc78
550bcc78
550bcc78
550bcc78
550bcc78
550bcc78
550bcc78
550bcc78
550bcc78
550bcc78
550bcc78
550bcc78
550bcc78
550bcc78
550bcc78
550bcc78
550bcc78
550bcc78
550bcc78
550bcc78
550bcc78
550bcc78
550bcc78
550bcc78
550bcc78
550bcc78
550bcc78
550bcc78
550bcc78
550bcc78
550bcc78
550bcc78
550bcc78
550bcc78
550bcc78
550bcc78
550bcc78
550bcc78
550bcc78
550bcc78
550bcc78
550bcc78
550bcc78
550bcc78
550bcc78
550bcc78
550bcc78
550bcc78
550bcc78
550bcc78
550bcc78
550bcc78
550bcc78
550bcc78
550bcc78
550bcc78
550bcc78
550bcc78
550bcc78
550bcc78
550bcc78
550bcc78
550bcc78
550bcc78
550bcc78
550bcc78
550bcc78
550bcc78
550bcc78
550bcc78
550bcc78
550bcc78
550bcc78
550bcc78
550bcc78
550bcc78
550bcc78
550bcc78
550bcc78
550bcc78
550bcc78
550bcc78
550bcc78
550bcc78
550bcc78
550bcc78
550bcc78
550bcc78
550bcc78
550bcc78
550bcc78
550bcc78
550bcc78
550bcc78
550bcc78
550bcc78
550bcc78
550bcc78
550bcc78
550bcc78
550bcc78
550bcc78
550bcc78
550bcc78
550bcc78
550bcc78
550bcc78
550bcc78
550bcc78
550bcc78
550bcc78
550bcc78
550bcc78
550bcc78
550bcc78
550bcc78
550bcc78
550bcc78
550bcc78
550bcc78
550bcc78
550bcc78
550bcc78
550bcc78
550bcc78
550bcc78
Block 324:
  0x0000000000400ce1  83 45 fc 01          add    $0x00000001 0xfffffffc(%rbp) -> 0xfffffffc(%rbp) 
  0x0000000000400ce5  83 7d fc 02          cmp    0xfffffffc(%rbp) $0x00000002 
  0x0000000000400ce9  0f 8e e5 fe ff ff    jle    $0x0000000000400bd4 

550bccc0
7ffff7685790
550bbf7c
550bbfac
550bbfc8
400c1d
7ffff767a0f0
550bc09c
550bc0c8
Block 325:
  0x00007ffff767a120  be 01 00 00 00       mov    $0x00000001 -> %esi 
  0x00007ffff767a125  31 c0                xor    %eax %eax -> %eax 
  0x00007ffff767a127  83 3d c6 9b 33 00 00 cmp    <rel> 0x00007ffff79b3cf4 $0x00000000 
  0x00007ffff767a12e  74 08                jz     $0x00007ffff767a138 

550bccdc
Block 326:
  0x00007ffff767a138  0f b1 33             cmpxchg %esi (%rbx) %eax -> (%rbx) %eax 
  0x00007ffff767a13b  74 16                jz     $0x00007ffff767a153 

550bcd1c
550bc7f8
550bc834
550bc858
550bc894
550bc8b3
550bc8d4
550bc8f4
550bc914
550bc934
550bc964
550bca1c
550bca38
550bca60
550bcaa4
550bcac0
Block 327:
  0x00007ffff7677b79  f6 43 04 01          test   0x04(%rbx) $0x01 
  0x00007ffff7677b7d  0f 85 ea 05 00 00    jnz    $0x00007ffff767816d 

550bcd3a
Block 328:
  0x00007ffff767816d  48 8b 15 c4 5c 33 00 mov    <rel> 0x00007ffff79ade38 -> %rdx 
  0x00007ffff7678174  4d 89 ea             mov    %r13 -> %r10 
  0x00007ffff7678177  41 89 cd             mov    %ecx -> %r13d 
  0x00007ffff767817a  48 8b 7a 18          mov    0x18(%rdx) -> %rdi 
  0x00007ffff767817e  48 89 7c 24 18       mov    %rdi -> 0x18(%rsp) 
  0x00007ffff7678183  48 83 ef 01          sub    $0x0000000000000001 %rdi -> %rdi 
  0x00007ffff7678187  4c 39 15 42 60 33 00 cmp    <rel> 0x00007ffff79ae1d0 %r10 
  0x00007ffff767818e  48 89 7c 24 08       mov    %rdi -> 0x08(%rsp) 
  0x00007ffff7678193  0f 87 47 01 00 00    jnbe   $0x00007ffff76782e0 

550bcd54
Block 329:
  0x00007ffff7678199  8b 0d 4d 60 33 00    mov    <rel> 0x00007ffff79ae1ec -> %ecx 
  0x00007ffff767819f  39 0d 43 60 33 00    cmp    <rel> 0x00007ffff79ae1e8 %ecx 
  0x00007ffff76781a5  0f 8d 35 01 00 00    jnl    $0x00007ffff76782e0 

550bcdb0
Block 330:
  0x00007ffff76781ab  48 8b 44 24 18       mov    0x18(%rsp) -> %rax 
  0x00007ffff76781b0  48 8b 6c 24 08       mov    0x08(%rsp) -> %rbp 
  0x00007ffff76781b5  4a 8d 44 10 07       lea    0x07(%rax,%r10,1) -> %rax 
  0x00007ffff76781ba  48 f7 d5             not    %rbp -> %rbp 
  0x00007ffff76781bd  48 21 c5             and    %rax %rbp -> %rbp 
  0x00007ffff76781c0  4c 39 d5             cmp    %rbp %r10 
  0x00007ffff76781c3  0f 87 a5 08 00 00    jnbe   $0x00007ffff7678a6e 

550bcdf4
Block 331:
  0x00007ffff7678a6e  45 31 c9             xor    %r9d %r9d -> %r9d 
  0x00007ffff7678a71  b9 22 00 00 00       mov    $0x00000022 -> %ecx 
  0x00007ffff7678a76  31 ff                xor    %edi %edi -> %edi 
  0x00007ffff7678a78  41 b8 ff ff ff ff    mov    $0xffffffff -> %r8d 
  0x00007ffff7678a7e  ba 03 00 00 00       mov    $0x00000003 -> %edx 
  0x00007ffff7678a83  48 89 ee             mov    %rbp -> %rsi 
  0x00007ffff7678a86  4c 89 14 24          mov    %r10 -> (%rsp) 
  0x00007ffff7678a8a  e8 21 90 07 00       call   $0x00007ffff76f1ab0 %rsp -> %rsp 0xfffffff8(%rsp) 
  0x00007ffff76f1ab0  49 89 ca             mov    %rcx -> %r10 
  0x00007ffff76f1ab3  b8 09 00 00 00       mov    $0x00000009 -> %eax 
  0x00007ffff76f1ab8  0f 05                syscall -> %rcx 

550bce20
550b3bc0
550bb8fc
7ffff7678a8f
Block 332:
  0x00007ffff7678a8f  48 83 f8 ff          cmp    %rax $0xffffffffffffffff 
  0x00007ffff7678a93  48 89 c1             mov    %rax -> %rcx 
  0x00007ffff7678a96  4c 8b 14 24          mov    (%rsp) -> %r10 
  0x00007ffff7678a9a  0f 84 29 f7 ff ff    jz     $0x00007ffff76781c9 

550bce60
Block 333:
  0x00007ffff7678aa0  48 89 e8             mov    %rbp -> %rax 
  0x00007ffff7678aa3  ba 01 00 00 00       mov    $0x00000001 -> %edx 
  0x00007ffff7678aa8  48 83 c8 02          or     $0x0000000000000002 %rax -> %rax 
  0x00007ffff7678aac  48 89 41 08          mov    %rax -> 0x08(%rcx) 
  0x00007ffff7678ab0  f0 0f c1 15 30 57 33 lock xadd   <rel> 0x00007ffff79ae1e8 %edx -> <rel> 0x00007ffff79ae1e8 %edx 
                      00
  0x00007ffff7678ab8  83 c2 01             add    $0x00000001 %edx -> %edx 
  0x00007ffff7678abb  8b 05 2f 57 33 00    mov    <rel> 0x00007ffff79ae1f0 -> %eax 
  0x00007ffff7678ac1  39 c2                cmp    %edx %eax 
  0x00007ffff7678ac3  7e 0a                jle    $0x00007ffff7678acf 

550bce80
Block 334:
  0x00007ffff7678ac5  f0 0f b1 15 23 57 33 lock cmpxchg %edx <rel> 0x00007ffff79ae1f0 %eax -> <rel> 0x00007ffff79ae1f0 %eax 
                      00
  0x00007ffff7678acd  75 ec                jnz    $0x00007ffff7678abb 

550bced9
Block 335:
  0x00007ffff7678acf  48 89 e8             mov    %rbp -> %rax 
  0x00007ffff7678ad2  f0 48 0f c1 05 1d 57 lock xadd   <rel> 0x00007ffff79ae1f8 %rax -> <rel> 0x00007ffff79ae1f8 %rax 
                      33 00
  0x00007ffff7678adb  48 01 c5             add    %rax %rbp -> %rbp 
  0x00007ffff7678ade  48 8b 05 1b 57 33 00 mov    <rel> 0x00007ffff79ae200 -> %rax 
  0x00007ffff7678ae5  48 39 c5             cmp    %rbp %rax 
  0x00007ffff7678ae8  76 0b                jbe    $0x00007ffff7678af5 

550bcf0c
Block 336:
  0x00007ffff7678aea  f0 48 0f b1 2d 0d 57 lock cmpxchg %rbp <rel> 0x00007ffff79ae200 %rax -> <rel> 0x00007ffff79ae200 %rax 
                      33 00
  0x00007ffff7678af3  75 e9                jnz    $0x00007ffff7678ade 

550bcf58
Block 337:
  0x00007ffff7678af5  48 83 c1 10          add    $0x0000000000000010 %rcx -> %rcx 
  0x00007ffff7678af9  e9 c6 f7 ff ff       jmp    $0x00007ffff76782c4 
  0x00007ffff76782c4  48 85 c9             test   %rcx %rcx 
  0x00007ffff76782c7  0f 84 be f9 ff ff    jz     $0x00007ffff7677c8b 

550bcf8c
Block 338:
  0x00007ffff76782cd  8b 05 29 88 33 00    mov    <rel> 0x00007ffff79b0afc -> %eax 
  0x00007ffff76782d3  85 c0                test   %eax %eax 
  0x00007ffff76782d5  0f 84 b0 f9 ff ff    jz     $0x00007ffff7677c8b 

550bcfab
7ffff767a15e
550bcb74
550bcb90
550bcbc8
400c4e
550bcc04
550bcc58
550bcc78
550bcc78
550bcc78
550bcc78
550bcc78
550bcc78
550bcc78
550bcc78
550bcc78
550bcc78
550bcc78
550bcc78
550bcc78
550bcc78
550bcc78
550bcc78
550bcc78
550bcc78
550bcc78
550bcc78
550bcc78
550bcc78
550bcc78
550bcc78
550bcc78
550bcc78
550bcc78
550bcc78
550bcc78
550bcc78
550bcc78
550bcc78
550bcc78
550bcc78
550bcc78
550bcc78
550bcc78
550bcc78
550bcc78
550bcc78
550bcc78
550bcc78
550bcc78
550bcc78
550bcc78
550bcc78
550bcc78
550bcc78
550bcc78
550bcc78
550bcc78
550bcc78
550bcc78
550bcc78
550bcc78
550bcc78
550bcc78
550bcc78
550bcc78
550bcc78
550bcc78
550bcc78
550bcc78
550bcc78
550bcc78
550bcc78
550bcc78
550bcc78
550bcc78
550bcc78
550bcc78
550bcc78
550bcc78
550bcc78
550bcc78
550bcc78
550bcc78
550bcc78
550bcc78
550bcc78
550bcc78
550bcc78
550bcc78
550bcc78
550bcc78
550bcc78
550bcc78
550bcc78
550bcc78
550bcc78
550bcc78
550bcc78
550bcc78
550bcc78
550bcc78
550bcc78
550bcc78
550bcc78
550bcc78
550bcc78
550bcc78
550bcc78
550bcc78
550bcc78
550bcc78
550bcc78
550bcc78
550bcc78
550bcc78
550bcc78
550bcc78
550bcc78
550bcc78
550bcc78
550bcc78
550bcc78
550bcc78
550bcc78
550bcc78
550bcc78
550bcc78
550bcc78
550bcc78
550bcc78
550bcc78
550bcc78
550bcc78
550bcc78
550bcc78
550bcc78
550bcc78
550bcc78
550bcc78
550bcc78
550bcc78
550bcc78
550bcc78
550bcc78
550bcc78
550bcc78
550bcc78
550bcc78
550bcc78
550bcc78
550bcc78
550bcc78
550bcc78
550bcc78
550bcc78
550bcc78
550bcc78
550bcc78
550bcc78
550bcc78
550bcc78
550bcc78
550bcc78
550bcc78
550bcc78
550bcc78
550bcc78
550bcc78
550bcc78
550bcc78
550bcc78
550bcc78
550bcc78
550bcc78
550bcc78
550bcc78
550bcc78
550bcc78
550bcc78
550bcc78
550bcc78
550bcc78
550bcc78
550bcc78
550bcc78
550bcc78
550bcc78
550bcc78
550bcc78
550bcc78
550bcc78
550bcc78
550bcc78
550bcc78
550bcc78
550bcc78
550bcc78
550bcc78
550bcc78
550bcc78
550bcc78
550bcc78
550bcc78
550bcc78
550bcc78
550bcc78
550bcc78
550bcc78
550bcc78
550bcc78
550bcc78
550bcc78
550bcc78
550bcc78
550bcc78
550bcc78
550bcc78
550bcc78
550bcc78
550bcc78
550bcc78
550bcc78
550bcc78
550bcc78
550bcc78
550bcc78
550bcc78
550bcc78
550bcc78
550bcc78
550bcc78
550bcc78
550bcc78
550bcc78
550bcc78
550bcc78
550bcc78
550bcc78
550bcc78
550bcc78
550bcc78
550bcc78
550bcc78
550bcc78
550bcc78
550bcc78
550bcc78
550bcc78
550bcc78
550bcc78
550bcc78
550bcc78
550bcc78
550bcc78
550bcc78
550bcc78
550bcc78
550bcc78
550bcc78
550bcc78
550bcc78
550bcc78
550bcc78
550bcc78
550bcc78
550bcc78
550bcc78
550bcc78
550bcc78
550bcc78
550bcc78
550bcc78
550bcc78
550bcc78
550bcc78
550bcc78
550bcc78
550bcc78
550bcc78
550bcc78
550bcc78
550bcc78
550bcc78
550bcc78
550bcc78
550bcc78
550bcc78
550bcc78
550bcc78
550bcc78
550bcc78
550bcc78
550bcc78
550bcc78
550bcc78
550bcc78
550bcc78
550bcc78
550bcc78
550bcc78
550bcc78
550bcc78
550bcc78
550bcc78
550bcc78
550bcc78
550bcc78
550bcc78
550bcc78
550bcc78
550bcc78
550bcc78
550bcc78
550bcc78
550bcc78
550bcc78
550bcc78
550bcc78
550bcc78
550bcc78
550bcc78
550bcc78
550bcc78
550bcc78
550bcc78
550bcc78
550bcc78
550bcc78
550bcc78
550bcc78
550bcc78
550bcc78
550bcc78
550bcc78
550bcc78
550bcc78
550bcc78
550bcc78
550bcc78
550bcc78
550bcc78
550bcc78
550bcc78
550bcc78
550bcc78
550bcc78
550bcc78
550bcc78
550bcc78
550bcc78
550bcc78
550bcc78
550bcc78
550bcc78
550bcc78
550bcc78
550bcc78
550bcc78
550bcc78
550bcc78
550bcc78
550bcc78
550bcc78
550bcc78
550bcc78
550bcc78
550bcc78
550bcc78
550bcc78
550bcc78
550bcc78
550bcc78
550bcc78
550bcc78
550bcc78
550bcc78
550bcc78
550bcc78
550bcc78
550bcc78
550bcc78
550bcc78
550bcc78
550bcc78
550bcc78
550bcc78
550bcc78
550bcc78
550bcc78
550bcc78
550bcc78
550bcc78
550bcc78
550bcc78
550bcc78
550bcc78
550bcc78
550bcc78
550bcc78
550bcc78
550bcc78
550bcc78
550bcc78
550bcc78
550bcc78
550bcc78
550bcc78
550bcc78
550bcc78
550bcc78
550bcc78
550bcc78
550bcc78
550bcc78
550bcc78
550bcc78
550bcc78
550bcc78
550bcc78
550bcc78
550bcc78
550bcc78
550bcc78
550bcc78
550bcc78
550bcc78
550bcc78
550bcc78
550bcc78
550bcc78
550bcc78
550bcc78
550bcc78
550bcc78
550bcc78
550bcc78
550bcc78
550bcc78
550bcc78
550bcc78
550bcc78
550bcc78
550bcc78
550bcc78
550bcc78
550bcc78
550bcc78
550bcc78
550bcc78
550bcc78
550bcc78
550bcc78
550bcc78
550bcc78
550bcc78
550bcc78
550bcc78
550bcc78
550bcc78
550bcc78
550bcc78
550bcc78
550bcc78
550bcc78
550bcc78
550bcc78
550bcc78
550bcc78
550bcc78
550bcc78
550bcc78
550bcc78
550bcc78
550bcc78
550bcc78
550bcc78
550bcc78
550bcc78
550bcc78
550bcc78
550bcc78
550bcc78
550bcc78
550bcc78
550bcc78
550bcc78
550bcc78
550bcc78
550bcc78
550bcc78
550bcc78
550bcc78
550bcc78
550bcc78
550bcc78
550bcc78
550bcc78
550bcc78
550bcc78
550bcc78
550bcc78
550bcc78
550bcc78
550bcc78
550bcc78
550bcc78
550bcc78
550bcc78
550bcc78
550bcc78
550bcc78
550bcc78
550bcc78
550bcc78
550bcc78
550bcc78
550bcc78
550bcc78
550bcc78
550bcc78
550bcc78
550bcc78
550bcc78
550bcc78
550bcc78
550bcc78
550bcc78
550bcc78
550bcc78
550bcc78
550bcc78
550bcc78
550bcc78
550bcc78
550bcc78
550bcc78
550bcc78
550bcc78
550bcc78
550bcc78
550bcc78
550bcc78
550bcc78
550bcc78
550bcc78
550bcc78
550bcc78
550bcc78
550bcc78
550bcc78
550bcc78
550bcc78
550bcc78
550bcc78
550bcc78
550bcc78
550bcc78
550bcc78
550bcc78
550bcc78
550bcc78
550bcc78
550bcc78
550bcc78
550bcc78
550bcc78
550bcc78
550bcc78
550bcc78
550bcc78
550bcc78
550bcc78
550bcc78
550bcc78
550bcc78
550bcc78
550bcc78
550bcc78
550bcc78
550bcc78
550bcc78
550bcc78
550bcc78
550bcc78
550bcc78
550bcc78
550bcc78
550bcc78
550bcc78
550bcc78
550bcc78
550bcc78
550bcc78
550bcc78
550bcc78
550bcc78
550bcc78
550bcc78
550bcc78
550bcc78
550bcc78
550bcc78
550bcc78
550bcc78
550bcc78
550bcc78
550bcc78
550bcc78
550bcc78
550bcc78
550bcc78
550bcc78
550bcc78
550bcc78
550bcc78
550bcc78
550bcc78
550bcc78
550bcc78
550bcc78
550bcc78
550bcc78
550bcc78
550bcc78
550bcc78
550bcc78
550bcc78
550bcc78
550bcc78
550bcc78
550bcc78
550bcc78
550bcc78
550bcc78
550bcc78
550bcc78
550bcc78
550bcc78
550bcc78
550bcc78
550bcc78
550bcc78
550bcc78
550bcc78
550bcc78
550bcc78
550bcc78
550bcc78
550bcc78
550bcc78
550bcc78
550bcc78
550bcc78
550bcc78
550bcc78
550bcc78
550bcc78
550bcc78
550bcc78
550bcc78
550bcc78
550bcc78
550bcc78
550bcc78
550bcc78
550bcc78
550bcc78
550bcc78
550bcc78
550bcc78
550bcc78
550bcc78
550bcc78
550bcc78
550bcc78
550bcc78
550bcc78
550bcc78
550bcc78
550bcc78
550bcc78
550bcc78
550bcc78
550bcc78
550bcc78
550bcc78
550bcc78
550bcc78
550bcc78
550bcc78
550bcc78
550bcc78
550bcc78
550bcc78
550bcc78
550bcc78
550bcc78
550bcc78
550bcc78
550bcc78
550bcc78
550bcc78
550bcc78
550bcc78
550bcc78
550bcc78
550bcc78
550bcc78
550bcc78
550bcc78
550bcc78
550bcc78
550bcc78
550bcc78
550bcc78
550bcc78
550bcc78
550bcc78
550bcc78
550bcc78
550bcc78
550bcc78
550bcc78
550bcc78
550bcc78
550bcc78
550bcc78
550bcc78
550bcc78
550bcc78
550bcc78
550bcc78
550bcc78
550bcc78
550bcc78
550bcc78
550bcc78
550bcc78
550bcc78
550bcc78
550bcc78
550bcc78
550bcc78
550bcc78
550bcc78
550bcc78
550bcc78
550bcc78
550bcc78
550bcc78
550bcc78
550bcc78
550bcc78
550bcc78
550bcc78
550bcc78
550bcc78
550bcc78
550bcc78
550bcc78
550bcc78
550bcc78
550bcc78
550bcc78
550bcc78
550bcc78
550bcc78
550bcc78
550bcc78
550bcc78
550bcc78
550bcc78
550bcc78
550bcc78
550bcc78
550bcc78
550bcc78
550bcc78
550bcc78
550bcc78
550bcc78
550bcc78
550bcc78
550bcc78
550bcc78
550bcc78
550bcc78
550bcc78
550bcc78
550bcc78
550bcc78
550bcc78
550bcc78
550bcc78
550bcc78
550bcc78
550bcc78
550bcc78
550bcc78
550bcc78
550bcc78
550bcc78
550bcc78
550bcc78
550bcc78
550bcc78
550bcc78
550bcc78
550bcc78
550bcc78
550bcc78
550bcc78
550bcc78
550bcc78
550bcc78
550bcc78
550bcc78
550bcc78
550bcc78
550bcc78
550bcc78
550bcc78
550bcc78
550bcc78
550bcc78
550bcc78
550bcc78
550bcc78
550bcc78
550bcc78
550bcc78
550bcc78
550bcc78
550bcc78
550bcc78
550bcc78
550bcc78
550bcc78
550bcc78
550bcc78
550bcc78
550bcc78
550bcc78
550bcc78
550bcc78
550bcc78
550bcc78
550bcc78
550bcc78
550bcc78
550bcc78
550bcc78
550bcc78
550bcc78
550bcc78
550bcc78
550bcc78
550bcc78
550bcc78
550bcc78
550bcc78
550bcc78
550bcc78
550bcc78
550bcc78
550bcc78
550bcc78
550bcc78
550bcc78
550bcc78
550bcc78
550bcc78
550bcc78
550bcc78
550bcc78
550bcc78
550bcc78
550bcc78
550bcc78
550bcc78
550bcc78
550bcc78
550bcc78
550bcc78
550bcc78
550bcc78
550bcc78
550bcc78
550bcc78
550bcc78
550bcc78
550bcc78
550bcc78
550bcc78
550bcc78
550bcc78
550bcc78
550bcc78
550bcc78
550bcc78
550bcc78
550bcc78
550bcc78
550bcc78
550bcc78
550bcc78
550bcc78
550bcc78
550bcc78
550bcc78
550bcc78
550bcc78
550bcc78
550bcc78
550bcc78
550bcc78
550bcc78
550bcc78
550bcc78
550bcc78
550bcc78
550bcc78
550bcc78
550bcc78
550bcc78
550bcc78
550bcc78
550bcc78
550bcc78
550bcc78
550bcc78
550bcc78
550bcc78
550bcc78
550bcc78
550bcc78
550bcc78
550bcc78
550bcc78
550bcc78
550bcc78
550bcc78
550bcc78
550bcc78
550bcc78
550bcc78
550bcc78
550bcc78
550bcc78
550bcc78
550bcc78
550bcc78
550bcc78
550bcc78
550bcc78
550bcc78
550bcc78
550bcc78
550bcc78
550bcc78
550bcc78
550bcc78
550bcc78
550bcc78
550bcc78
550bcc78
550bcc78
550bcc78
550bcc78
550bcc78
550bcc78
550bcc78
550bcc78
550bcc78
550bcc78
550bcc78
550bcc78
550bcc78
550bcc78
550bcc78
550bcc78
550bcc78
550bcc78
550bcc78
550bcc78
550bcc78
550bcc78
550bcc78
550bcc78
550bcc78
550bcc78
550bcc78
550bcc78
550bcc78
550bcc78
550bcc78
550bcc78
550bcc78
550bcc78
550bcc78
550bcc78
550bcc78
550bcc78
550bcc78
550bcc78
550bcc78
550bcc78
550bcc78
550bcc78
550bcc78
550bcc78
550bcc78
550bcc78
550bcc78
550bcc78
550bcc78
550bcc78
550bcc78
550bcc78
550bcc78
550bcc78
550bcc78
550bcc78
550bcc78
550bcc78
550bcc78
550bcc78
550bcc78
550bcc78
550bcc78
550bcc78
550bcc78
550bcc78
550bcc78
550bcc78
550bcc78
550bcc78
550bcc78
550bcc78
550bcc78
550bcc78
550bcc78
550bcc78
550bcc78
550bcc78
550bcc78
550bcc78
550bcc78
550bcc78
550bcc78
550bcc78
550bcc78
550bcc78
550bcc78
550bcc78
550bcc78
550bcc78
550bcc78
550bcc78
550bcc78
550bcc78
550bcc78
550bcc78
550bcc78
550bcc78
550bcc78
550bcc78
550bcc78
550bcc78
550bcc78
550bcc78
550bcc78
550bcc78
550bcc78
550bcc78
550bcc78
550bcc78
550bcc78
550bcc78
550bcc78
550bcc78
550bcc78
550bcc78
550bcc78
550bcc78
550bcc78
550bcc78
550bcc78
550bcc78
550bcc78
550bcc78
550bcc78
550bcc78
550bcc78
550bcc78
550bcc78
550bcc78
550bcc78
550bcc78
550bcc78
550bcc78
550bcc78
550bcc78
550bcc78
550bcc78
550bcc78
550bcc78
550bcc78
550bcc78
550bcc78
550bcc78
550bcc78
550bcc78
550bcc78
550bcc78
550bcc78
550bcc78
550bcc78
550bcc78
550bcc78
550bcc78
550bcc78
550bcc78
550bcc78
550bcc78
550bcc78
550bcc78
550bcc78
550bcc78
550bcc78
550bcc78
550bcc78
550bcc78
550bcc78
550bcc78
550bcc78
550bcc78
550bcc78
550bcc78
550bcc78
550bcc78
550bcc78
550bcc78
550bcc78
550bcc78
550bcc78
550bcc78
550bcc78
550bcc78
550bcc78
550bcc78
550bcc78
550bcc78
550bcc78
550bcc78
550bcc78
550bcc78
550bcc78
550bcc78
550bcc78
550bcc78
550bcc78
550bcc78
550bcc78
550bcc78
550bcc78
550bcc78
550bcc78
550bcc78
550bcc78
550bcc78
550bcc78
550bcc78
550bcc78
550bcc78
550bcc78
550bcc78
550bcc78
550bcc78
550bcc78
550bcc78
550bcc78
550bcc78
550bcc78
550bcc78
550bcc78
550bcc78
550bcc78
550bcc78
550bcc78
550bcc78
550bcc78
550bcc78
550bcc78
550bcc78
550bcc78
550bcc78
550bcc78
550bcc78
550bcc78
550bcc78
550bcc78
550bcc78
550bcc78
550bcc78
550bcc78
550bcc78
550bcc78
550bcc78
550bcc78
550bcc78
550bcc78
550bcc78
550bcc78
550bcc78
550bcc78
550bcc78
550bcc78
550bcc78
550bcc78
550bcc78
550bcc78
550bcc78
550bcc78
550bcc78
550bcc78
550bcc78
550bcc78
550bcc78
550bcc78
550bcc78
550bcc78
550bcc78
550bcc78
550bcc78
550bcc78
550bcc78
550bcc78
550bcc78
550bcc78
550bcc78
550bcc78
550bcc78
550bcc78
550bcc78
550bcc78
550bcc78
550bcc78
550bcc78
550bcc78
550bcc78
550bcc78
550bcc78
550bcc78
550bcc78
550bcc78
550bcc78
550bcc78
550bcc78
550bcc78
550bcc78
550bcc78
550bcc78
550bcc78
550bcc78
550bcc78
550bcc78
550bcc78
550bcc78
550bcc78
550bcc78
550bcc78
550bcc78
550bcc78
550bcc78
550bcc78
550bcc78
550bcc78
550bcc78
550bcc78
550bcc78
550bcc78
550bcc78
550bcc78
550bcc78
550bcc78
550bcc78
550bcc78
550bcc78
550bcc78
550bcc78
550bcc78
550bcc78
550bcc78
550bcc78
550bcc78
550bcc78
550bcc78
550bcc78
550bcc78
550bcc78
550bcc78
550bcc78
550bcc78
550bcc78
550bcc78
550bcc78
550bcc78
550bcc78
550bcc78
550bcc78
550bcc78
550bcc78
550bcc78
550bcc78
550bcc78
550bcc78
550bcc78
550bcc78
550bcc78
550bcc78
550bcc78
550bcc78
550bcc78
550bcc78
550bcc78
550bcc78
550bcc78
550bcc78
550bcc78
550bcc78
550bcc78
550bcc78
550bcc78
550bcc78
550bcc78
550bcc78
550bcc78
550bcc78
550bcc78
550bcc78
550bcc78
550bcc78
550bcc78
550bcc78
550bcc78
550bcc78
550bcc78
550bcc78
550bcc78
550bcc78
550bcc78
550bcc78
550bcc78
550bcc78
550bcc78
550bcc78
550bcc78
550bcc78
550bcc78
550bcc78
550bcc78
550bcc78
550bcc78
550bcc78
550bcc78
550bcc78
550bcc78
550bcc78
550bcc78
550bcc78
550bcc78
550bcc78
550bcc78
550bcc78
550bcc78
550bcc78
550bcc78
550bcc78
550bcc78
550bcc78
550bcc78
550bcc78
550bcc78
550bcc78
550bcc78
550bcc78
550bcc78
550bcc78
550bcc78
550bcc78
550bcc78
550bcc78
550bcc78
550bcc78
550bcc78
550bcc78
550bcc78
550bcc78
550bcc78
550bcc78
550bcc78
550bcc78
550bcc78
550bcc78
550bcc78
550bcc78
550bcc78
550bcc78
550bcc78
550bcc78
550bcc78
550bcc78
550bcc78
550bcc78
550bcc78
550bcc78
550bcc78
550bcc78
550bcc78
550bcc78
550bcc78
550bcc78
550bcc78
550bcc78
550bcc78
550bcc78
550bcc78
550bcc78
550bcc78
550bcc78
550bcc78
550bcc78
550bcc78
550bcc78
550bcc78
550bcc78
550bcc78
550bcc78
550bcc78
550bcc78
550bcc78
550bcc78
550bcc78
550bcc78
550bcc78
550bcc78
550bcc78
550bcc78
550bcc78
550bcc78
550bcc78
550bcc78
550bcc78
550bcc78
550bcc78
550bcc78
550bcc78
550bcc78
550bcc78
550bcc78
550bcc78
550bcc78
550bcc78
550bcc78
550bcc78
550bcc78
550bcc78
550bcc78
550bcc78
550bcc78
550bcc78
550bcc78
550bcc78
550bcc78
550bcc78
550bcc78
550bcc78
550bcc78
550bcc78
550bcc78
550bcc78
550bcc78
550bcc78
550bcc78
550bcc78
550bcc78
550bcc78
550bcc78
550bcc78
550bcc78
550bcc78
550bcc78
550bcc78
550bcc78
550bcc78
550bcc78
550bcc78
550bcc78
550bcc78
550bcc78
550bcc78
550bcc78
550bcc78
550bcc78
550bcc78
550bcc78
550bcc78
550bcc78
550bcc78
550bcc78
550bcc78
550bcc78
550bcc78
550bcc78
550bcc78
550bcc78
550bcc78
550bcc78
550bcc78
550bcc78
550bcc78
550bcc78
550bcc78
550bcc78
550bcc78
550bcc78
550bcc78
550bcc78
550bcc78
550bcc78
550bcc78
550bcc78
550bcc78
550bcc78
550bcc78
550bcc78
550bcc78
550bcc78
550bcc78
550bcc78
550bcc78
550bcc78
550bcc78
550bcc78
550bcc78
550bcc78
550bcc78
550bcc78
550bcc78
550bcc78
550bcc78
550bcc78
550bcc78
550bcc78
550bcc78
550bcc78
550bcc78
550bcc78
550bcc78
550bcc78
550bcc78
550bcc78
550bcc78
550bcc78
550bcc78
550bcc78
550bcc78
550bcc78
550bcc78
550bcc78
550bcc78
550bcc78
550bcc78
550bcc78
550bcc78
550bcc78
550bcc78
550bcc78
550bcc78
550bcc78
550bcc78
550bcc78
550bcc78
550bcc78
550bcc78
550bcc78
550bcc78
550bcc78
550bcc78
550bcc78
550bcc78
550bcc78
550bcc78
550bcc78
550bcc78
550bcc78
550bcc78
550bcc78
550bcc78
550bcc78
550bcc78
550bcc78
550bcc78
550bcc78
550bcc78
550bcc78
550bcc78
550bcc78
550bcc78
550bcc78
550bcc78
550bcc78
550bcc78
550bcc78
550bcc78
550bcc78
550bcc78
550bcc78
550bcc78
550bcc78
550bcc78
550bcc78
550bcc78
550bcc78
550bcc78
550bcc78
550bcc78
550bcc78
550bcc78
550bcc78
550bcc78
550bcc78
550bcc78
550bcc78
550bcc78
550bcc78
550bcc78
550bcc78
550bcc78
550bcc78
550bcc78
550bcc78
550bcc78
550bcc78
550bcc78
550bcc78
550bcc78
550bcc78
550bcc78
550bcc78
550bcc78
550bcc78
550bcc78
550bcc78
550bcc78
550bcc78
550bcc78
550bcc78
550bcc78
550bcc78
550bcc78
550bcc78
550bcc78
550bcc78
550bcc78
550bcc78
550bcc78
550bcc78
550bcc78
550bcc78
550bcc78
550bcc78
550bcc78
550bcc78
550bcc78
550bcc78
550bcc78
550bcc78
550bcc78
550bcc78
550bcc78
550bcc78
550bcc78
550bcc78
550bcc78
550bcc78
550bcc78
550bcc78
550bcc78
550bcc78
550bcc78
550bcc78
550bcc78
550bcc78
550bcc78
550bcc78
550bcc78
550bcc78
550bcc78
550bcc78
550bcc78
550bcc78
550bcc78
550bcc78
550bcc78
550bcc78
550bcc78
550bcc78
550bcc78
550bcc78
550bcc78
550bcc78
550bcc78
550bcc78
550bcc78
550bcc78
550bcc78
550bcc78
550bcc78
550bcc78
550bcc78
550bcc78
550bcc78
550bcc78
550bcc78
550bcc78
550bcc78
550bcc78
550bcc78
550bcc78
550bcc78
550bcc78
550bcc78
550bcc78
550bcc78
550bcc78
550bcc78
550bcc78
550bcc78
550bcc78
550bcc78
550bcc78
550bcc78
550bcc78
550bcc78
550bcc78
550bcc78
550bcc78
550bcc78
550bcc78
550bcc78
550bcc78
550bcc78
550bcc78
550bcc78
550bcc78
550bcc78
550bcc78
550bcc78
550bcc78
550bcc78
550bcc78
550bcc78
550bcc78
550bcc78
550bcc78
550bcc78
550bcc78
550bcc78
550bcc78
550bcc78
550bcc78
550bcc78
550bcc78
550bcc78
550bcc78
550bcc78
550bcc78
550bcc78
550bcc78
550bcc78
550bcc78
550bcc78
550bcc78
550bcc78
550bcc78
550bcc78
550bcc78
550bcc78
550bcc78
550bcc78
550bcc78
550bcc78
550bcc78
550bcc78
550bcc78
550bcc78
550bcc78
550bcc78
550bcc78
550bcc78
550bcc78
550bcc78
550bcc78
550bcc78
550bcc78
550bcc78
550bcc78
550bcc78
550bcc78
550bcc78
550bcc78
550bcc78
550bcc78
550bcc78
550bcc78
550bcc78
550bcc78
550bcc78
550bcc78
550bcc78
550bcc78
550bcc78
550bcc78
550bcc78
550bcc78
550bcc78
550bcc78
550bcc78
550bcc78
550bcc78
550bcc78
550bcc78
550bcc78
550bcc78
550bcc78
550bcc78
550bcc78
550bcc78
550bcc78
550bcc78
550bcc78
550bcc78
550bcc78
550bcc78
550bcc78
550bcc78
550bcc78
550bcc78
550bcc78
550bcc78
550bcc78
550bcc78
550bcc78
550bcc78
550bcc78
550bcc78
550bcc78
550bcc78
550bcc78
550bcc78
550bcc78
550bcc78
550bcc78
550bcc78
550bcc78
550bcc78
550bcc78
550bcc78
550bcc78
550bcc78
550bcc78
550bcc78
550bcc78
550bcc78
550bcc78
550bcc78
550bcc78
550bcc78
550bcc78
550bcc78
550bcc78
550bcc78
550bcc78
550bcc78
550bcc78
550bcc78
550bcc78
550bcc78
550bcc78
550bcc78
550bcc78
550bcc78
550bcc78
550bcc78
550bcc78
550bcc78
550bcc78
550bcc78
550bcc78
550bcc78
550bcc78
550bcc78
550bcc78
550bcc78
550bcc78
550bcc78
550bcc78
550bcc78
550bcc78
550bcc78
550bcc78
550bcc78
550bcc78
550bcc78
550bcc78
550bcc78
550bcc78
550bcc78
550bcc78
550bcc78
550bcc78
550bcc78
550bcc78
550bcc78
550bcc78
550bcc78
550bcc78
550bcc78
550bcc78
550bcc78
550bcc78
550bcc78
550bcc78
550bcc78
550bcc78
550bcc78
550bcc78
550bcc78
550bcc78
550bcc78
550bcc78
550bcc78
550bcc78
550bcc78
550bcc78
550bcc78
550bcc78
550bcc78
550bcc78
550bcc78
550bcc78
550bcc78
550bcc78
550bcc78
550bcc78
550bcc78
550bcc78
550bcc78
550bcc78
550bcc78
550bcc78
550bcc78
550bcc78
550bcc78
550bcc78
550bcc78
550bcc78
550bcc78
550bcc78
550bcc78
550bcc78
550bcc78
550bcc78
550bcc78
550bcc78
550bcc78
550bcc78
550bcc78
550bcc78
550bcc78
550bcc78
550bcc78
550bcc78
550bcc78
550bcc78
550bcc78
550bcc78
550bcc78
550bcc78
550bcc78
550bcc78
550bcc78
550bcc78
550bcc78
550bcc78
550bcc78
550bcc78
550bcc78
550bcc78
550bcc78
550bcc78
550bcc78
550bcc78
550bcc78
550bcc78
550bcc78
550bcc78
550bcc78
550bcc78
550bcc78
550bcc78
550bcc78
550bcc78
550bcc78
550bcc78
550bcc78
550bcc78
550bcc78
550bcc78
550bcc78
550bcc78
550bcc78
550bcc78
550bcc78
550bcc78
550bcc78
550bcc78
550bcc78
550bcc78
550bcc78
550bcc78
550bcc78
550bcc78
550bcc78
550bcc78
550bcc78
550bcc78
550bcc78
550bcc78
550bcc78
550bcc78
550bcc78
550bcc78
550bcc78
550bcc78
550bcc78
550bcc78
550bcc78
550bcc78
550bcc78
550bcc78
550bcc78
550bcc78
550bcc78
550bcc78
550bcc78
550bcc78
550bcc78
550bcc78
550bcc78
550bcc78
550bcc78
550bcc78
550bcc78
550bcc78
550bcc78
550bcc78
550bcc78
550bcc78
550bcc78
550bcc78
550bcc78
550bcc78
550bcc78
550bcc78
550bcc78
550bcc78
550bcc78
550bcc78
550bcc78
550bcc78
550bcc78
550bcc78
550bcc78
550bcc78
550bcc78
550bcc78
550bcc78
550bcc78
550bcc78
550bcc78
550bcc78
550bcc78
550bcc78
550bcc78
550bcc78
550bcc78
550bcc78
550bcc78
550bcc78
550bcc78
550bcc78
550bcc78
550bcc78
550bcc78
550bcc78
550bcc78
550bcc78
550bcc78
550bcc78
550bcc78
550bcc78
550bcc78
550bcc78
550bcc78
550bcc78
550bcc78
550bcc78
550bcc78
550bcc78
550bcc78
550bcc78
550bcc78
550bcc78
550bcc78
550bcc78
550bcc78
550bcc78
550bcc78
550bcc78
550bcc78
550bcc78
550bcc78
550bcc78
550bcc78
550bcc78
550bcc78
550bcc78
550bcc78
550bcc78
550bcc78
550bcc78
550bcc78
550bcc78
550bcc78
550bcc78
550bcc78
550bcc78
550bcc78
550bcc78
550bcc78
550bcc78
550bcc78
550bcc78
550bcc78
550bcc78
550bcc78
550bcc78
550bcc78
550bcc78
550bcc78
550bcc78
550bcc78
550bcc78
550bcc78
550bcc78
550bcc78
550bcc78
550bcc78
550bcc78
550bcc78
550bcc78
550bcc78
550bcc78
550bcc78
550bcc78
550bcc78
550bcc78
550bcc78
550bcc78
550bcc78
550bcc78
550bcc78
550bcc78
550bcc78
550bcc78
550bcc78
550bcc78
550bcc78
550bcc78
550bcc78
550bcc78
550bcc78
550bcc78
550bcc78
550bcc78
550bcc78
550bcc78
550bcc78
550bcc78
550bcc78
550bcc78
550bcc78
550bcc78
550bcc78
550bcc78
550bcc78
550bcc78
550bcc78
550bcc78
550bcc78
550bcc78
550bcc78
550bcc78
550bcc78
550bcc78
550bcc78
550bcc78
550bcc78
550bcc78
550bcc78
550bcc78
550bcc78
550bcc78
550bcc78
550bcc78
550bcc78
550bcc78
550bcc78
550bcc78
550bcc78
550bcc78
550bcc78
550bcc78
550bcc78
550bcc78
550bcc78
550bcc78
550bcc78
550bcc78
550bcc78
550bcc78
550bcc78
550bcc78
550bcc78
550bcc78
550bcc78
550bcc78
550bcc78
550bcc78
550bcc78
550bcc78
550bcc78
550bcc78
550bcc78
550bcc78
550bcc78
550bcc78
550bcc78
550bcc78
550bcc78
550bcc78
550bcc78
550bcc78
550bcc78
550bcc78
550bcc78
550bcc78
550bcc78
550bcc78
550bcc78
550bcc78
550bcc78
550bcc78
550bcc78
550bcc78
550bcc78
550bcc78
550bcc78
550bcc78
550bcc78
550bcc78
550bcc78
550bcc78
550bcc78
550bcc78
550bcc78
550bcc78
550bcc78
550bcc78
550bcc78
550bcc78
550bcc78
550bcc78
550bcc78
550bcc78
550bcc78
550bcc78
550bcc78
550bcc78
550bcc78
550bcc78
550bcc78
550bcc78
550bcc78
550bcc78
550bcc78
550bcc78
550bcc78
550bcc78
550bcc78
550bcc78
550bcc78
550bcc78
550bcc78
550bcc78
550bcc78
550bcc78
550bcc78
550bcc78
550bcc78
550bcc78
550bcc78
550bcc78
550bcc78
550bcc78
550bcc78
550bcc78
550bcc78
550bcc78
550bcc78
550bcc78
550bcc78
550bcc78
550bcc78
550bcc78
550bcc78
550bcc78
550bcc78
550bcc78
550bcc78
550bcc78
550bcc78
550bcc78
550bcc78
550bcc78
550bcc78
550bcc78
550bcc78
550bcc78
550bcc78
550bcc78
550bcc78
550bcc78
550bcc78
550bcc78
550bcc78
550bcc78
550bcc78
550bcc78
550bcc78
550bcc78
550bcc78
550bcc78
550bcc78
550bcc78
550bcc78
550bcc78
550bcc78
550bcc78
550bcc78
550bcc78
550bcc78
550bcc78
550bcc78
550bcc78
550bcc78
550bcc78
550bcc78
550bcc78
550bcc78
550bcc78
550bcc78
550bcc78
550bcc78
550bcc78
550bcc78
550bcc78
550bcc78
550bcc78
550bcc78
550bcc78
550bcc78
550bcc78
550bcc78
550bcc78
550bcc78
550bcc78
550bcc78
550bcc78
550bcc78
550bcc78
550bcc78
550bcc78
550bcc78
550bcc78
550bcc78
550bcc78
550bcc78
550bcc78
550bcc78
550bcc78
550bcc78
550bcc78
550bcc78
550bcc78
550bcc78
550bcc78
550bcc78
550bcc78
550bcc78
550bcc78
550bcc78
550bcc78
550bcc78
550bcc78
550bcc78
550bcc78
550bcc78
550bcc78
550bcc78
550bcc78
550bcc78
550bcc78
550bcc78
550bcc78
550bcc78
550bcc78
550bcc78
550bcc78
550bcc78
550bcc78
550bcc78
550bcc78
550bcc78
550bcc78
550bcc78
550bcc78
550bcc78
550bcc78
550bcc78
550bcc78
550bcc78
550bcc78
550bcc78
550bcc78
550bcc78
550bcc78
550bcc78
550bcc78
550bcc78
550bcc78
550bcc78
550bcc78
550bcc78
550bcc78
550bcc78
550bcc78
550bcc78
550bcc78
550bcc78
550bcc78
550bcc78
550bcc78
550bcc78
550bcc78
550bcc78
550bcc78
550bcc78
550bcc78
550bcc78
550bcc78
550bcc78
550bcc78
550bcc78
550bcc78
550bcc78
550bcc78
550bcc78
550bcc78
550bcc78
550bcc78
550bcc78
550bcc78
550bcc78
550bcc78
550bcc78
550bcc78
550bcc78
550bcc78
550bcc78
550bcc78
550bcc78
550bcc78
550bcc78
550bcc78
550bcc78
550bcc78
550bcc78
550bcc78
550bcc78
550bcc78
550bcc78
550bcc78
550bcc78
550bcc78
550bcc78
550bcc78
550bcc78
550bcc78
550bcc78
550bcc78
550bcc78
550bcc78
550bcc78
550bcc78
550bcc78
550bcc78
550bcc78
550bcc78
550bcc78
550bcc78
550bcc78
550bcc78
550bcc78
550bcc78
550bcc78
550bcc78
550bcc78
550bcc78
550bcc78
550bcc78
550bcc78
550bcc78
550bcc78
550bcc78
550bcc78
550bcc78
550bcc78
550bcc78
550bcc78
550bcc78
550bcc78
550bcc78
550bcc78
550bcc78
550bcc78
550bcc78
550bcc78
550bcc78
550bcc78
550bcc78
550bcc78
550bcc78
550bcc78
550bcc78
550bcc78
550bcc78
550bcc78
550bcc78
550bcc78
550bcc78
550bcc78
550bcc78
550bcc78
550bcc78
550bcc78
550bcc78
550bcc78
550bcc78
550bcc78
550bcc78
550bcc78
550bcc78
550bcc78
550bcc78
550bcc78
550bcc78
550bcc78
550bcc78
550bcc78
550bcc78
550bcc78
550bcc78
550bcc78
550bcc78
550bcc78
550bcc78
550bcc78
550bcc78
550bcc78
550bcc78
550bcc78
550bcc78
550bcc78
550bcc78
550bcc78
550bcc78
550bcc78
550bcc78
550bcc78
550bcc78
550bcc78
550bcc78
550bcc78
550bcc78
550bcc78
550bcc78
550bcc78
550bcc78
550bcc78
550bcc78
550bcc78
550bcc78
550bcc78
550bcc78
550bcc78
550bcc78
550bcc78
550bcc78
550bcc78
550bcc78
550bcc78
550bcc78
550bcc78
550bcc78
550bcc78
550bcc78
550bcc78
550bcc78
550bcc78
550bcc78
550bcc78
550bcc78
550bcc78
550bcc78
550bcc78
550bcc78
550bcc78
550bcc78
550bcc78
550bcc78
550bcc78
550bcc78
550bcc78
550bcc78
550bcc78
550bcc78
550bcc78
550bcc78
550bcc78
550bcc78
550bcc78
550bcc78
550bcc78
550bcc78
550bcc78
550bcc78
550bcc78
550bcc78
550bcc78
550bcc78
550bcc78
550bcc78
550bcc78
550bcc78
550bcc78
550bcc78
550bcc78
550bcc78
550bcc78
550bcc78
550bcc78
550bcc78
550bcc78
550bcc78
550bcc78
550bcc78
550bcc78
550bcc78
550bcc78
550bcc78
550bcc78
550bcc78
550bcc78
550bcc78
550bcc78
550bcc78
550bcc78
550bcc78
550bcc78
550bcc78
550bcc78
550bcc78
550bcc78
550bcc78
550bcc78
550bcc78
550bcc78
550bcc78
550bcc78
550bcc78
550bcc78
550bcc78
550bcc78
550bcc78
550bcc78
550bcc78
550bcc78
550bcc78
550bcc78
550bcc78
550bcc78
550bcc78
550bcc78
550bcc78
550bcc78
550bcc78
550bcc78
550bcc78
550bcc78
550bcc78
550bcc78
550bcc78
550bcc78
550bcc78
550bcc78
550bcc78
550bcc78
550bcc78
550bcc78
550bcc78
550bcc78
550bcc78
550bcc78
550bcc78
550bcc78
550bcc78
550bcc78
550bcc78
550bcc78
550bcc78
550bcc78
550bcc78
550bcc78
550bcc78
550bcc78
550bcc78
550bcc78
550bcc78
550bcc78
550bcc78
550bcc78
550bcc78
550bcc78
550bcc78
550bcc78
550bcc78
550bcc78
550bcc78
550bcc78
550bcc78
550bcc78
550bcc78
550bcc78
550bcc78
550bcc78
550bcc78
550bcc78
550bcc78
550bcc78
550bcc78
550bcc78
550bcc78
550bcc78
550bcc78
550bcc78
550bcc78
550bcc78
550bcc78
550bcc78
550bcc78
550bcc78
550bcc78
550bcc78
550bcc78
550bcc78
550bcc78
550bcc78
550bcc78
550bcc78
550bcc78
550bcc78
550bcc78
550bcc78
550bcc78
550bcc78
550bcc78
550bcc78
550bcc78
550bcc78
550bcc78
550bcc78
550bcc78
550bcc78
550bcc78
550bcc78
550bcc78
550bcc78
550bcc78
550bcc78
550bcc78
550bcc78
550bcc78
550bcc78
550bcc78
550bcc78
550bcc78
550bcc78
550bcc78
550bcc78
550bcc78
550bcc78
550bcc78
550bcc78
550bcc78
550bcc78
550bcc78
550bcc78
550bcc78
550bcc78
550bcc78
550bcc78
550bcc78
550bcc78
550bcc78
550bcc78
550bcc78
550bcc78
550bcc78
550bcc78
550bcc78
550bcc78
550bcc78
550bcc78
550bcc78
550bcc78
550bcc78
550bcc78
550bcc78
550bcc78
550bcc78
550bcc78
550bcc78
550bcc78
550bcc78
550bcc78
550bcc78
550bcc78
550bcc78
550bcc78
550bcc78
550bcc78
550bcc78
550bcc78
550bcc78
550bcc78
550bcc78
550bcc78
550bcc78
550bcc78
550bcc78
550bcc78
550bcc78
550bcc78
550bcc78
550bcc78
550bcc78
550bcc78
550bcc78
550bcc78
550bcc78
550bcc78
550bcc78
550bcc78
550bcc78
550bcc78
550bcc78
550bcc78
550bcc78
550bcc78
550bcc78
550bcc78
550bcc78
550bcc78
550bcc78
550bcc78
550bcc78
550bcc78
550bcc78
550bcc78
550bcc78
550bcc78
550bcc78
550bcc78
550bcc78
550bcc78
550bcc78
550bcc78
550bcc78
550bcc78
550bcc78
550bcc78
550bcc78
550bcc78
550bcc78
550bcc78
550bcc78
550bcc78
550bcc78
550bcc78
550bcc78
550bcc78
550bcc78
550bcc78
550bcc78
550bcc78
550bcc78
550bcc78
550bcc78
550bcc78
550bcc78
550bcc78
550bcc78
550bcc78
550bcc78
550bcc78
550bcc78
550bcc78
550bcc78
550bcc78
550bcc78
550bcc78
550bcc78
550bcc78
550bcc78
550bcc78
550bcc78
550bcc78
550bcc78
550bcc78
550bcc78
550bcc78
550bcc78
550bcc78
550bcc78
550bcc78
550bcc78
550bcc78
550bcc78
550bcc78
550bcc78
550bcc78
550bcc78
550bcc78
550bcc78
550bcc78
550bcc78
550bcc78
550bcc78
550bcc78
550bcc78
550bcc78
550bcc78
550bcc78
550bcc78
550bcc78
550bcc78
550bcc78
550bcc78
550bcc78
550bcc78
550bcc78
550bcc78
550bcc78
550bcc78
550bcc78
550bcc78
550bcc78
550bcc78
550bcc78
550bcc78
550bcc78
550bcc78
550bcc78
550bcc78
550bcc78
550bcc78
550bcc78
550bcc78
550bcc78
550bcc78
550bcc78
550bcc78
550bcc78
550bcc78
550bcc78
550bcc78
550bcc78
550bcc78
550bcc78
550bcc78
550bcc78
550bcc78
550bcc78
550bcc78
550bcc78
550bcc78
550bcc78
550bcc78
550bcc78
550bcc78
550bcc78
550bcc78
550bcc78
550bcc78
550bcc78
550bcc78
550bcc78
550bcc78
550bcc78
550bcc78
550bcc78
550bcc78
550bcc78
550bcc78
550bcc78
550bcc78
550bcc78
550bcc78
550bcc78
550bcc78
550bcc78
550bcc78
550bcc78
550bcc78
550bcc78
550bcc78
550bcc78
550bcc78
550bcc78
550bcc78
550bcc78
550bcc78
550bcc78
550bcc78
550bcc78
550bcc78
550bcc78
550bcc78
550bcc78
550bcc78
550bcc78
550bcc78
550bcc78
550bcc78
550bcc78
550bcc78
550bcc78
550bcc78
550bcc78
550bcc78
550bcc78
550bcc78
550bcc78
550bcc78
550bcc78
550bcc78
550bcc78
550bcc78
550bcc78
550bcc78
550bcc78
550bcc78
550bcc78
550bcc78
550bcc78
550bcc78
550bcc78
550bcc78
550bcc78
550bcc78
550bcc78
550bcc78
550bcc78
550bcc78
550bcc78
550bcc78
550bcc78
550bcc78
550bcc78
550bcc78
550bcc78
550bcc78
550bcc78
550bcc78
550bcc78
550bcc78
550bcc78
550bcc78
550bcc78
550bcc78
550bcc78
550bcc78
550bcc78
550bcc78
550bcc78
550bcc78
550bcc78
550bcc78
550bcc78
550bcc78
550bcc78
550bcc78
550bcc78
550bcc78
550bcc78
550bcc78
550bcc78
550bcc78
550bcc78
550bcc78
550bcc78
550bcc78
550bcc78
550bcc78
550bcc78
550bcc78
550bcc78
550bcc78
550bcc78
550bcc78
550bcc78
550bcc78
550bcc78
550bcc78
550bcc78
550bcc78
550bcc78
550bcc78
550bcc78
550bcc78
550bcc78
550bcc78
550bcc78
550bcc78
550bcc78
550bcc78
550bcc78
550bcc78
550bcc78
550bcc78
550bcc78
550bcc78
550bcc78
550bcc78
550bcc78
550bcc78
550bcc78
550bcc78
550bcc78
550bcc78
550bcc78
550bcc78
550bcc78
550bcc78
550bcc78
550bcc78
550bcc78
550bcc78
550bcc78
550bcc78
550bcc78
550bcc78
550bcc78
550bcc78
550bcc78
550bcc78
550bcc78
550bcc78
550bcc78
550bcc78
550bcc78
550bcc78
550bcc78
550bcc78
550bcc78
550bcc78
550bcc78
550bcc78
550bcc78
550bcc78
550bcc78
550bcc78
550bcc78
550bcc78
550bcc78
550bcc78
550bcc78
550bcc78
550bcc78
550bcc78
550bcc78
550bcc78
550bcc78
550bcc78
550bcc78
550bcc78
550bcc78
550bcc78
550bcc78
550bcc78
550bcc78
550bcc78
550bcc78
550bcc78
550bcc78
550bcc78
550bcc78
550bcc78
550bcc78
550bcc78
550bcc78
550bcc78
550bcc78
550bcc78
550bcc78
550bcc78
550bcc78
550bcc78
550bcc78
550bcc78
550bcc78
550bcc78
550bcc78
550bcc78
550bcc78
550bcc78
550bcc78
550bcc78
550bcc78
550bcc78
550bcc78
550bcc78
550bcc78
550bcc78
550bcc78
550bcc78
550bcc78
550bcc78
550bcc78
550bcc78
550bcc78
550bcc78
550bcc78
550bcc78
550bcc78
550bcc78
550bcc78
550bcc78
550bcc78
550bcc78
550bcc78
550bcc78
550bcc78
550bcc78
550bcc78
550bcc78
550bcc78
550bcc78
550bcc78
550bcc78
550bcc78
550bcc78
550bcc78
550bcc78
550bcc78
550bcc78
550bcc78
550bcc78
550bcc78
550bcc78
550bcc78
550bcc78
550bcc78
550bcc78
550bcc78
550bcc78
550bcc78
550bcc78
550bcc78
550bcc78
550bcc78
550bcc78
550bcc78
550bcc78
550bcc78
550bcc78
550bcc78
550bcc78
550bcc78
550bcc78
550bcc78
550bcc78
550bcc78
550bcc78
550bcc78
550bcc78
550bcc78
550bcc78
550bcc78
550bcc78
550bcc78
550bcc78
550bcc78
550bcc78
550bcc78
550bcc78
550bcc78
550bcc78
550bcc78
550bcc78
550bcc78
550bcc78
550bcc78
550bcc78
550bcc78
550bcc78
550bcc78
550bcc78
550bcc78
550bcc78
550bcc78
550bcc78
550bcc78
550bcc78
550bcc78
550bcc78
550bcc78
550bcc78
550bcc78
550bcc78
550bcc78
550bcc78
550bcc78
550bcc78
550bcc78
550bcc78
550bcc78
550bcc78
550bcc78
550bcc78
550bcc78
550bcc78
550bcc78
550bcc78
550bcc78
550bcc78
550bcc78
550bcc78
550bcc78
550bcc78
550bcc78
550bcc78
550bcc78
550bcc78
550bcc78
550bcc78
550bcc78
550bcc78
550bcc78
550bcc78
550bcc78
550bcc78
550bcc78
550bcc78
550bcc78
550bcc78
550bcc78
550bcc78
550bcc78
550bcc78
550bcc78
550bcc78
550bcc78
550bcc78
550bcc78
550bcc78
550bcc78
550bcc78
550bcc78
550bcc78
550bcc78
550bcc78
550bcc78
550bcc78
550bcc78
550bcc78
550bcc78
550bcc78
550bcc78
550bcc78
550bcc78
550bcc78
550bcc78
550bcc78
550bcc78
550bcc78
550bcc78
550bcc78
550bcc78
550bcc78
550bcc78
550bcc78
550bcc78
550bcc78
550bcc78
550bcc78
550bcc78
550bcc78
550bcc78
550bcc78
550bcc78
550bcc78
550bcc78
550bcc78
550bcc78
550bcc78
550bcc78
550bcc78
550bcc78
550bcc78
550bcc78
550bcc78
550bcc78
550bcc78
550bcc78
550bcc78
550bcc78
550bcc78
550bcc78
550bcc78
550bcc78
550bcc78
550bcc78
550bcc78
550bcc78
550bcc78
550bcc78
550bcc78
550bcc78
550bcc78
550bcc78
550bcc78
550bcc78
550bcc78
550bcc78
550bcc78
550bcc78
550bcc78
550bcc78
550bcc78
550bcc78
550bcc78
550bcc78
550bcc78
550bcc78
550bcc78
550bcc78
550bcc78
550bcc78
550bcc78
550bcc78
550bcc78
550bcc78
550bcc78
550bcc78
550bcc78
550bcc78
550bcc78
550bcc78
550bcc78
550bcc78
550bcc78
550bcc78
550bcc78
550bcc78
550bcc78
550bcc78
550bcc78
550bcc78
550bcc78
550bcc78
550bcc78
550bcc78
550bcc78
550bcc78
550bcc78
550bcc78
550bcc78
550bcc78
550bcc78
550bcc78
550bcc78
550bcc78
550bcc78
550bcc78
550bcc78
550bcc78
550bcc78
550bcc78
550bcc78
550bcc78
550bcc78
550bcc78
550bcc78
550bcc78
550bcc78
550bcc78
550bcc78
550bcc78
550bcc78
550bcc78
550bcc78
550bcc78
550bcc78
550bcc78
550bcc78
550bcc78
550bcc78
550bcc78
550bcc78
550bcc78
550bcc78
550bcc78
550bcc78
550bcc78
550bcc78
550bcc78
550bcc78
550bcc78
550bcc78
550bcc78
550bcc78
550bcc78
550bcc78
550bcc78
550bcc78
550bcc78
550bcc78
550bcc78
550bcc78
550bcc78
550bcc78
550bcc78
550bcc78
550bcc78
550bcc78
550bcc78
550bcc78
550bcc78
550bcc78
550bcc78
550bcc78
550bcc78
550bcc78
550bcc78
550bcc78
550bcc78
550bcc78
550bcc78
550bcc78
550bcc78
550bcc78
550bcc78
550bcc78
550bcc78
550bcc78
550bcc78
550bcc78
550bcc78
550bcc78
550bcc78
550bcc78
550bcc78
550bcc78
550bcc78
550bcc78
550bcc78
550bcc78
550bcc78
550bcc78
550bcc78
550bcc78
550bcc78
550bcc78
550bcc78
550bcc78
550bcc78
550bcc78
550bcc78
550bcc78
550bcc78
550bcc78
550bcc78
550bcc78
550bcc78
550bcc78
550bcc78
550bcc78
550bcc78
550bcc78
550bcc78
550bcc78
550bcc78
550bcc78
550bcc78
550bcc78
550bcc78
550bcc78
550bcc78
550bcc78
550bcc78
550bcc78
550bcc78
550bcc78
550bcc78
550bcc78
550bcc78
550bcc78
550bcc78
550bcc78
550bcc78
550bcc78
550bcc78
550bcc78
550bcc78
550bcc78
550bcc78
550bcc78
550bcc78
550bcc78
550bcc78
550bcc78
550bcc78
550bcc78
550bcc78
550bcc78
550bcc78
550bcc78
550bcc78
550bcc78
550bcc78
550bcc78
550bcc78
550bcc78
550bcc78
550bcc78
550bcc78
550bcc78
550bcc78
550bcc78
550bcc78
550bcc78
550bcc78
550bcc78
550bcc78
550bcc78
550bcc78
550bcc78
550bcc78
550bcc78
550bcc78
550bcc78
550bcc78
550bcc78
550bcc78
550bcc78
550bcc78
550bcc78
550bcc78
550bcc78
550bcc78
550bcc78
550bcc78
550bcc78
550bcc78
550bcc78
550bcc78
550bcc78
550bcc78
550bcc78
550bcc78
550bcc78
550bcc78
550bcc78
550bcc78
550bcc78
550bcc78
550bcc78
550bcc78
550bcc78
550bcc78
550bcc78
550bcc78
550bcc78
550bcc78
550bcc78
550bcc78
550bcc78
550bcc78
550bcc78
550bcc78
550bcc78
550bcc78
550bcc78
550bcc78
550bcc78
550bcc78
550bcc78
550bcc78
550bcc78
550bcc78
550bcc78
550bcc78
550bcc78
550bcc78
550bcc78
550bcc78
550bcc78
550bcc78
550bcc78
550bcc78
550bcc78
550bcc78
550bcc78
550bcc78
550bcc78
550bcc78
550bcc78
550bcc78
550bcc78
550bcc78
550bcc78
550bcc78
550bcc78
550bcc78
550bcc78
550bcc78
550bcc78
550bcc78
550bcc78
550bcc78
550bcc78
550bcc78
550bcc78
550bcc78
550bcc78
550bcc78
550bcc78
550bcc78
550bcc78
550bcc78
550bcc78
550bcc78
550bcc78
550bcc78
550bcc78
550bcc78
550bcc78
550bcc78
550bcc78
550bcc78
550bcc78
550bcc78
550bcc78
550bcc78
550bcc78
550bcc78
550bcc78
550bcc78
550bcc78
550bcc78
550bcc78
550bcc78
550bcc78
550bcc78
550bcc78
550bcc78
550bcc78
550bcc78
550bcc78
550bcc78
550bcc78
550bcc78
550bcc78
550bcc78
550bcc78
550bcc78
550bcc78
550bcc78
550bcc78
550bcc78
550bcc78
550bcc78
550bcc78
550bcc78
550bcc78
550bcc78
550bcc78
550bcc78
550bcc78
550bcc78
550bcc78
550bcc78
550bcc78
550bcc78
550bcc78
550bcc78
550bcc78
550bcc78
550bcc78
550bcc78
550bcc78
550bcc78
550bcc78
550bcc78
550bcc78
550bcc78
550bcc78
550bcc78
550bcc78
550bcc78
550bcc78
550bcc78
550bcc78
550bcc78
550bcc78
550bcc78
550bcc78
550bcc78
550bcc78
550bcc78
550bcc78
550bcc78
550bcc78
550bcc78
550bcc78
550bcc78
550bcc78
550bcc78
550bcc78
550bcc78
550bcc78
550bcc78
550bcc78
550bcc78
550bcc78
550bcc78
550bcc78
550bcc78
550bcc78
550bcc78
550bcc78
550bcc78
550bcc78
550bcc78
550bcc78
550bcc78
550bcc78
550bcc78
550bcc78
550bcc78
550bcc78
550bcc78
550bcc78
550bcc78
550bcc78
550bcc78
550bcc78
550bcc78
550bcc78
550bcc78
550bcc78
550bcc78
550bcc78
550bcc78
550bcc78
550bcc78
550bcc78
550bcc78
550bcc78
550bcc78
550bcc78
550bcc78
550bcc78
550bcc78
550bcc78
550bcc78
550bcc78
550bcc78
550bcc78
550bcc78
550bcc78
550bcc78
550bcc78
550bcc78
550bcc78
550bcc78
550bcc78
550bcc78
550bcc78
550bcc78
550bcc78
550bcc78
550bcc78
550bcc78
550bcc78
550bcc78
550bcc78
550bcc78
550bcc78
550bcc78
550bcc78
550bcc78
550bcc78
550bcc78
550bcc78
550bcc78
550bcc78
550bcc78
550bcc78
550bcc78
550bcc78
550bcc78
550bcc78
550bcc78
550bcc78
550bcc78
550bcc78
550bcc78
550bcc78
550bcc78
550bcc78
550bcc78
550bcc78
550bcc78
550bcc78
550bcc78
550bcc78
550bcc78
550bcc78
550bcc78
550bcc78
550bcc78
550bcc78
550bcc78
550bcc78
550bcc78
550bcc78
550bcc78
550bcc78
550bcc78
550bcc78
550bcc78
550bcc78
550bcc78
550bcc78
550bcc78
550bcc78
550bcc78
550bcc78
550bcc78
550bcc78
550bcc78
550bcc78
550bcc78
550bcc78
550bcc78
550bcc78
550bcc78
550bcc78
550bcc78
550bcc78
550bcc78
550bcc78
550bcc78
550bcc78
550bcc78
550bcc78
550bcc78
550bcc78
550bcc78
550bcc78
550bcc78
550bcc78
550bcc78
550bcc78
550bcc78
550bcc78
550bcc78
550bcc78
550bcc78
550bcc78
550bcc78
550bcc78
550bcc78
550bcc78
550bcc78
550bcc78
550bcc78
550bcc78
550bcc78
550bcc78
550bcc78
550bcc78
550bcc78
550bcc78
550bcc78
550bcc78
550bcc78
550bcc78
550bcc78
550bcc78
550bcc78
550bcc78
550bcc78
550bcc78
550bcc78
550bcc78
550bcc78
550bcc78
550bcc78
550bcc78
550bcc78
550bcc78
550bcc78
550bcc78
550bcc78
550bcc78
550bcc78
550bcc78
550bcc78
550bcc78
550bcc78
550bcc78
550bcc78
550bcc78
550bcc78
550bcc78
550bcc78
550bcc78
550bcc78
550bcc78
550bcc78
550bcc78
550bcc78
550bcc78
550bcc78
550bcc78
550bcc78
550bcc78
550bcc78
550bcc78
550bcc78
550bcc78
550bcc78
550bcc78
550bcc78
550bcc78
550bcc78
550bcc78
550bcc78
550bcc78
550bcc78
550bcc78
550bcc78
550bcc78
550bcc78
550bcc78
550bcc78
550bcc78
550bcc78
550bcc78
550bcc78
550bcc78
550bcc78
550bcc78
550bcc78
550bcc78
550bcc78
550bcc78
550bcc78
550bcc78
550bcc78
550bcc78
550bcc78
550bcc78
550bcc78
550bcc78
550bcc78
550bcc78
550bcc78
550bcc78
550bcc78
550bcc78
550bcc78
550bcc78
550bcc78
550bcc78
550bcc78
550bcc78
550bcc78
550bcc78
550bcc78
550bcc78
550bcc78
550bcc78
550bcc78
550bcc78
550bcc78
550bcc78
550bcc78
550bcc78
550bcc78
550bcc78
550bcc78
550bcc78
550bcc78
550bcc78
550bcc78
550bcc78
550bcc78
550bcc78
550bcc78
550bcc78
550bcc78
550bcc78
550bcc78
550bcc78
550bcc78
550bcc78
550bcc78
550bcc78
550bcc78
550bcc78
550bcc78
550bcc78
550bcc78
550bcc78
550bcc78
550bcc78
550bcc78
550bcc78
550bcc78
550bcc78
550bcc78
550bcc78
550bcc78
550bcc78
550bcc78
550bcc78
550bcc78
550bcc78
550bcc78
550bcc78
550bcc78
550bcc78
550bcc78
550bcc78
550bcc78
550bcc78
550bcc78
550bcc78
550bcc78
550bcc78
550bcc78
550bcc78
550bcc78
550bcc78
550bcc78
550bcc78
550bcc78
550bcc78
550bcc78
550bcc78
550bcc78
550bcc78
550bcc78
550bcc78
550bcc78
550bcc78
550bcc78
550bcc78
550bcc78
550bcc78
550bcc78
550bcc78
550bcc78
550bcc78
550bcc78
550bcc78
550bcc78
550bcc78
550bcc78
550bcc78
550bcc78
550bcc78
550bcc78
550bcc78
550bcc78
550bcc78
550bcc78
550bcc78
550bcc78
550bcc78
550bcc78
550bcc78
550bcc78
550bcc78
550bcc78
550bcc78
550bcc78
550bcc78
550bcc78
550bcc78
550bcc78
550bcc78
550bcc78
550bcc78
550bcc78
550bcc78
550bcc78
550bcc78
550bcc78
550bcc78
550bcc78
550bcc78
550bcc78
550bcc78
550bcc78
550bcc78
550bcc78
550bcc78
550bcc78
550bcc78
550bcc78
550bcc78
550bcc78
550bcc78
550bcc78
550bcc78
550bcc78
550bcc78
550bcc78
550bcc78
550bcc78
550bcc78
550bcc78
550bcc78
550bcc78
550bcc78
550bcc78
550bcc78
550bcc78
550bcc78
550bcc78
550bcc78
550bcc78
550bcc78
550bcc78
550bcc78
550bcc78
550bcc78
550bcc78
550bcc78
550bcc78
550bcc78
550bcc78
550bcc78
550bcc78
550bcc78
550bcc78
550bcc78
550bcc78
550bcc78
550bcc78
550bcc78
550bcc78
550bcc78
550bcc78
550bcc78
550bcc78
550bcc78
550bcc78
550bcc78
550bcc78
550bcc78
550bcc78
550bcc78
550bcc78
550bcc78
550bcc78
550bcc78
550bcc78
550bcc78
550bcc78
550bcc78
550bcc78
550bcc78
550bcc78
550bcc78
550bcc78
550bcc78
550bcc78
550bcc78
550bcc78
550bcc78
550bcc78
550bcc78
550bcc78
550bcc78
550bcc78
550bcc78
550bcc78
550bcc78
550bcc78
550bcc78
550bcc78
550bcc78
550bcc78
550bcc78
550bcc78
550bcc78
550bcc78
550bcc78
550bcc78
550bcc78
550bcc78
550bcc78
550bcc78
550bcc78
550bcc78
550bcc78
550bcc78
550bcc78
550bcc78
550bcc78
550bcc78
550bcc78
550bcc78
550bcc78
550bcc78
550bcc78
550bcc78
550bcc78
550bcc78
550bcc78
550bcc78
550bcc78
550bcc78
550bcc78
550bcc78
550bcc78
550bcc78
550bcc78
550bcc78
550bcc78
550bcc78
550bcc78
550bcc78
550bcc78
550bcc78
550bcc78
550bcc78
550bcc78
550bcc78
550bcc78
550bcc78
550bcc78
550bcc78
550bcc78
550bcc78
550bcc78
550bcc78
550bcc78
550bcc78
550bcc78
550bcc78
550bcc78
550bcc78
550bcc78
550bcc78
550bcc78
550bcc78
550bcc78
550bcc78
550bcc78
550bcc78
550bcc78
550bcc78
550bcc78
550bcc78
550bcc78
550bcc78
550bcc78
550bcc78
550bcc78
550bcc78
550bcc78
550bcc78
550bcc78
550bcc78
550bcc78
550bcc78
550bcc78
550bcc78
550bcc78
550bcc78
550bcc78
550bcc78
550bcc78
550bcc78
550bcc78
550bcc78
550bcc78
550bcc78
550bcc78
550bcc78
550bcc78
550bcc78
550bcc78
550bcc78
550bcc78
550bcc78
550bcc78
550bcc78
550bcc78
550bcc78
550bcc78
550bcc78
550bcc78
550bcc78
550bcc78
550bcc78
550bcc78
550bcc78
550bcc78
550bcc78
550bcc78
550bcc78
550bcc78
550bcc78
550bcc78
550bcc78
550bcc78
550bcc78
550bcc78
550bcc78
550bcc78
550bcc78
550bcc78
550bcc78
550bcc78
550bcc78
550bcc78
550bcc78
550bcc78
550bcc78
550bcc78
550bcc78
550bcc78
550bcc78
550bcc78
550bcc78
550bcc78
550bcc78
550bcc78
550bcc78
550bcc78
550bcc78
550bcc78
550bcc78
550bcc78
550bcc78
550bcc78
550bcc78
550bcc78
550bcc78
550bcc78
550bcc78
550bcc78
550bcc78
550bcc78
550bcc78
550bcc78
550bcc78
550bcc78
550bcc78
550bcc78
550bcc78
550bcc78
550bcc78
550bcc78
550bcc78
550bcc78
550bcc78
550bcc78
550bcc78
550bcc78
550bcc78
550bcc78
550bcc78
550bcc78
550bcc78
550bcc78
550bcc78
550bcc78
550bcc78
550bcc78
550bcc78
550bcc78
550bcc78
550bcc78
550bcc78
550bcc78
550bcc78
550bcc78
550bcc78
550bcc78
550bcc78
550bcc78
550bcc78
550bcc78
550bcc78
550bcc78
550bcc78
550bcc78
550bcc78
550bcc78
550bcc78
550bcc78
550bcc78
550bcc78
550bcc78
550bcc78
550bcc78
550bcc78
550bcc78
550bcc78
550bcc78
550bcc78
550bcc78
550bcc78
550bcc78
550bcc78
550bcc78
550bcc78
550bcc78
550bcc78
550bcc78
550bcc78
550bcc78
550bcc78
550bcc78
550bcc78
550bcc78
550bcc78
550bcc78
550bcc78
550bcc78
550bcc78
550bcc78
550bcc78
550bcc78
550bcc78
550bcc78
550bcc78
550bcc78
550bcc78
550bcc78
550bcc78
550bcc78
550bcc78
550bcc78
550bcc78
550bcc78
550bcc78
550bcc78
550bcc78
550bcc78
550bcc78
550bcc78
550bcc78
550bcc78
550bcc78
550bcc78
550bcc78
550bcc78
550bcc78
550bcc78
550bcc78
550bcc78
550bcc78
550bcc78
550bcc78
550bcc78
550bcc78
550bcc78
550bcc78
550bcc78
550bcc78
550bcc78
550bcc78
550bcc78
550bcc78
550bcc78
550bcc78
550bcc78
550bcc78
550bcc78
550bcc78
550bcc78
550bcc78
550bcc78
550bcc78
550bcc78
550bcc78
550bcc78
550bcc78
550bcc78
550bcc78
550bcc78
550bcc78
550bcc78
550bcc78
550bcc78
550bcc78
550bcc78
550bcc78
550bcc78
550bcc78
550bcc78
550bcc78
550bcc78
550bcc78
550bcc78
550bcc78
550bcc78
550bcc78
550bcc78
550bcc78
550bcc78
550bcc78
550bcc78
550bcc78
550bcc78
550bcc78
550bcc78
550bcc78
550bcc78
550bcc78
550bcc78
550bcc78
550bcc78
550bcc78
550bcc78
550bcc78
550bcc78
550bcc78
550bcc78
550bcc78
550bcc78
550bcc78
550bcc78
550bcc78
550bcc78
550bcc78
550bcc78
550bcc78
550bcc78
550bcc78
550bcc78
550bcc78
550bcc78
550bcc78
550bcc78
550bcc78
550bcc78
550bcc78
550bcc78
550bcc78
550bcc78
550bcc78
550bcc78
550bcc78
550bcc78
550bcc78
550bcc78
550bcc78
550bcc78
550bcc78
550bcc78
550bcc78
550bcc78
550bcc78
550bcc78
550bcc78
550bcc78
550bcc78
550bcc78
550bcc78
550bcc78
550bcc78
550bcc78
550bcc78
550bcc78
550bcc78
550bcc78
550bcc78
550bcc78
550bcc78
550bcc78
550bcc78
550bcc78
550bcc78
550bcc78
550bcc78
550bcc78
550bcc78
550bcc78
550bcc78
550bcc78
550bcc78
550bcc78
550bcc78
550bcc78
550bcc78
550bcc78
550bcc78
550bcc78
550bcc78
550bcc78
550bcc78
550bcc78
550bcc78
550bcc78
550bcc78
550bcc78
550bcc78
550bcc78
550bcc78
550bcc78
550bcc78
550bcc78
550bcc78
550bcc78
550bcc78
550bcc78
550bcc78
550bcc78
550bcc78
550bcc78
550bcc78
550bcc78
550bcc78
550bcc78
550bcc78
550bcc78
550bcc78
550bcc78
550bcc78
550bcc78
550bcc78
550bcc78
550bcc78
550bcc78
550bcc78
550bcc78
550bcc78
550bcc78
550bcc78
550bcc78
550bcc78
550bcc78
550bcc78
550bcc78
550bcc78
550bcc78
550bcc78
550bcc78
550bcc78
550bcc78
550bcc78
550bcc78
550bcc78
550bcc78
550bcc78
550bcc78
550bcc78
550bcc78
550bcc78
550bcc78
550bcc78
550bcc78
550bcc78
550bcc78
550bcc78
550bcc78
550bcc78
550bcc78
550bcc78
550bcc78
550bcc78
550bcc78
550bcc78
550bcc78
550bcc78
550bcc78
550bcc78
550bcc78
550bcc78
550bcc78
550bcc78
550bcc78
550bcc78
550bcc78
550bcc78
550bcc78
550bcc78
550bcc78
550bcc78
550bcc78
550bcc78
550bcc78
550bcc78
550bcc78
550bcc78
550bcc78
550bcc78
550bcc78
550bcc78
550bcc78
550bcc78
550bcc78
550bcc78
550bcc78
550bcc78
550bcc78
550bcc78
550bcc78
550bcc78
550bcc78
550bcc78
550bcc78
550bcc78
550bcc78
550bcc78
550bcc78
550bcc78
550bcc78
550bcc78
550bcc78
550bcc78
550bcc78
550bcc78
550bcc78
550bcc78
550bcc78
550bcc78
550bcc78
550bcc78
550bcc78
550bcc78
550bcc78
550bcc78
550bcc78
550bcc78
550bcc78
550bcc78
550bcc78
550bcc78
550bcc78
550bcc78
550bcc78
550bcc78
550bcc78
550bcc78
550bcc78
550bcc78
550bcc78
550bcc78
550bcc78
550bcc78
550bcc78
550bcc78
550bcc78
550bcc78
550bcc78
550bcc78
550bcc78
550bcc78
550bcc78
550bcc78
550bcc78
550bcc78
550bcc78
550bcc78
550bcc78
550bcc78
550bcc78
550bcc78
550bcc78
550bcc78
550bcc78
550bcc78
550bcc78
550bcc78
550bcc78
550bcc78
550bcc78
550bcc78
550bcc78
550bcc78
550bcc78
550bcc78
550bcc78
550bcc78
550bcc78
550bcc78
550bcc78
550bcc78
550bcc78
550bcc78
550bcc78
550bcc78
550bcc78
550bcc78
550bcc78
550bcc78
550bcc78
550bcc78
550bcc78
550bcc78
550bcc78
550bcc78
550bcc78
550bcc78
550bcc78
550bcc78
550bcc78
550bcc78
550bcc78
550bcc78
550bcc78
550bcc78
550bcc78
550bcc78
550bcc78
550bcc78
550bcc78
550bcc78
550bcc78
550bcc78
550bcc78
550bcc78
550bcc78
550bcc78
550bcc78
550bcc78
550bcc78
550bcc78
550bcc78
550bcc78
550bcc78
550bcc78
550bcc78
550bcc78
550bcc78
550bcc78
550bcc78
550bcc78
550bcc78
550bcc78
550bcc78
550bcc78
550bcc78
550bcc78
550bcc78
550bcc78
550bcc78
550bcc78
550bcc78
550bcc78
550bcc78
550bcc78
550bcc78
550bcc78
550bcc78
550bcc78
550bcc78
550bcc78
550bcc78
550bcc78
550bcc78
550bcc78
550bcc78
550bcc78
550bcc78
550bcc78
550bcc78
550bcc78
550bcc78
550bcc78
550bcc78
550bcc78
550bcc78
550bcc78
550bcc78
550bcc78
550bcc78
550bcc78
550bcc78
550bcc78
550bcc78
550bcc78
550bcc78
550bcc78
550bcc78
550bcc78
550bcc78
550bcc78
550bcc78
550bcc78
550bcc78
550bcc78
550bcc78
550bcc78
550bcc78
550bcc78
550bcc78
550bcc78
550bcc78
550bcc78
550bcc78
550bcc78
550bcc78
550bcc78
550bcc78
550bcc78
550bcc78
550bcc78
550bcc78
550bcc78
550bcc78
550bcc78
550bcc78
550bcc78
550bcc78
550bcc78
550bcc78
550bcc78
550bcc78
550bcc78
550bcc78
550bcc78
550bcc78
550bcc78
550bcc78
550bcc78
550bcc78
550bcc78
550bcc78
550bcc78
550bcc78
550bcc78
550bcc78
550bcc78
550bcc78
550bcc78
550bcc78
550bcc78
550bcc78
550bcc78
550bcc78
550bcc78
550bcc78
550bcc78
550bcc78
550bcc78
550bcc78
550bcc78
550bcc78
550bcc78
550bcc78
550bcc78
550bcc78
550bcc78
550bcc78
550bcc78
550bcc78
550bcc78
550bcc78
550bcc78
550bccc0
7ffff7685790
550bbf7c
550bbfac
550bbfc8
400c1d
7ffff767a0f0
550bc09c
550bc0c8
550bccdc
550bcd1c
550bc7f8
550bc834
550bc858
550bc894
550bc8b3
550bc8d4
550bc8f4
550bc914
550bc934
550bc964
550bca1c
550bca38
550bca60
550bcaa4
550bcac0
550bcd3a
550bcd54
550bcdb0
550bcdf4
550bce20
550b3bc0
550bb8fc
7ffff7678a8f
550bce60
550bce80
550bced9
550bcf0c
550bcf58
550bcf8c
550bcfab
7ffff767a15e
550bcb74
550bcb90
550bcbc8
400c4e
550bcc04
550bcc58
550bcc78
550bcc78
550bcc78
550bcc78
550bcc78
550bcc78
550bcc78
550bcc78
550bcc78
550bcc78
550bcc78
550bcc78
550bcc78
550bcc78
550bcc78
550bcc78
550bcc78
550bcc78
550bcc78
550bcc78
550bcc78
550bcc78
550bcc78
550bcc78
550bcc78
550bcc78
550bcc78
550bcc78
550bcc78
550bcc78
550bcc78
550bcc78
550bcc78
550bcc78
550bcc78
550bcc78
550bcc78
550bcc78
550bcc78
550bcc78
550bcc78
550bcc78
550bcc78
550bcc78
550bcc78
550bcc78
550bcc78
550bcc78
550bcc78
550bcc78
550bcc78
550bcc78
550bcc78
550bcc78
550bcc78
550bcc78
550bcc78
550bcc78
550bcc78
550bcc78
550bcc78
550bcc78
550bcc78
550bcc78
550bcc78
550bcc78
550bcc78
550bcc78
550bcc78
550bcc78
550bcc78
550bcc78
550bcc78
550bcc78
550bcc78
550bcc78
550bcc78
550bcc78
550bcc78
550bcc78
550bcc78
550bcc78
550bcc78
550bcc78
550bcc78
550bcc78
550bcc78
550bcc78
550bcc78
550bcc78
550bcc78
550bcc78
550bcc78
550bcc78
550bcc78
550bcc78
550bcc78
550bcc78
550bcc78
550bcc78
550bcc78
550bcc78
550bcc78
550bcc78
550bcc78
550bcc78
550bcc78
550bcc78
550bcc78
550bcc78
550bcc78
550bcc78
550bcc78
550bcc78
550bcc78
550bcc78
550bcc78
550bcc78
550bcc78
550bcc78
550bcc78
550bcc78
550bcc78
550bcc78
550bcc78
550bcc78
550bcc78
550bcc78
550bcc78
550bcc78
550bcc78
550bcc78
550bcc78
550bcc78
550bcc78
550bcc78
550bcc78
550bcc78
550bcc78
550bcc78
550bcc78
550bcc78
550bcc78
550bcc78
550bcc78
550bcc78
550bcc78
550bcc78
550bcc78
550bcc78
550bcc78
550bcc78
550bcc78
550bcc78
550bcc78
550bcc78
550bcc78
550bcc78
550bcc78
550bcc78
550bcc78
550bcc78
550bcc78
550bcc78
550bcc78
550bcc78
550bcc78
550bcc78
550bcc78
550bcc78
550bcc78
550bcc78
550bcc78
550bcc78
550bcc78
550bcc78
550bcc78
550bcc78
550bcc78
550bcc78
550bcc78
550bcc78
550bcc78
550bcc78
550bcc78
550bcc78
550bcc78
550bcc78
550bcc78
550bcc78
550bcc78
550bcc78
550bcc78
550bcc78
550bcc78
550bcc78
550bcc78
550bcc78
550bcc78
550bcc78
550bcc78
550bcc78
550bcc78
550bcc78
550bcc78
550bcc78
550bcc78
550bcc78
550bcc78
550bcc78
550bcc78
550bcc78
550bcc78
550bcc78
550bcc78
550bcc78
550bcc78
550bcc78
550bcc78
550bcc78
550bcc78
550bcc78
550bcc78
550bcc78
550bcc78
550bcc78
550bcc78
550bcc78
550bcc78
550bcc78
550bcc78
550bcc78
550bcc78
550bcc78
550bcc78
550bcc78
550bcc78
550bcc78
550bcc78
550bcc78
550bcc78
550bcc78
550bcc78
550bcc78
550bcc78
550bcc78
550bcc78
550bcc78
550bcc78
550bcc78
550bcc78
550bcc78
550bcc78
550bcc78
550bcc78
550bcc78
550bcc78
550bcc78
550bcc78
550bcc78
550bcc78
550bcc78
550bcc78
550bcc78
550bcc78
550bcc78
550bcc78
550bcc78
550bcc78
550bcc78
550bcc78
550bcc78
550bcc78
550bcc78
550bcc78
550bcc78
550bcc78
550bcc78
550bcc78
550bcc78
550bcc78
550bcc78
550bcc78
550bcc78
550bcc78
550bcc78
550bcc78
550bcc78
550bcc78
550bcc78
550bcc78
550bcc78
550bcc78
550bcc78
550bcc78
550bcc78
550bcc78
550bcc78
550bcc78
550bcc78
550bcc78
550bcc78
550bcc78
550bcc78
550bcc78
550bcc78
550bcc78
550bcc78
550bcc78
550bcc78
550bcc78
550bcc78
550bcc78
550bcc78
550bcc78
550bcc78
550bcc78
550bcc78
550bcc78
550bcc78
550bcc78
550bcc78
550bcc78
550bcc78
550bcc78
550bcc78
550bcc78
550bcc78
550bcc78
550bcc78
550bcc78
550bcc78
550bcc78
550bcc78
550bcc78
550bcc78
550bcc78
550bcc78
550bcc78
550bcc78
550bcc78
550bcc78
550bcc78
550bcc78
550bcc78
550bcc78
550bcc78
550bcc78
550bcc78
550bcc78
550bcc78
550bcc78
550bcc78
550bcc78
550bcc78
550bcc78
550bcc78
550bcc78
550bcc78
550bcc78
550bcc78
550bcc78
550bcc78
550bcc78
550bcc78
550bcc78
550bcc78
550bcc78
550bcc78
550bcc78
550bcc78
550bcc78
550bcc78
550bcc78
550bcc78
550bcc78
550bcc78
550bcc78
550bcc78
550bcc78
550bcc78
550bcc78
550bcc78
550bcc78
550bcc78
550bcc78
550bcc78
550bcc78
550bcc78
550bcc78
550bcc78
550bcc78
550bcc78
550bcc78
550bcc78
550bcc78
550bcc78
550bcc78
550bcc78
550bcc78
550bcc78
550bcc78
550bcc78
550bcc78
550bcc78
550bcc78
550bcc78
550bcc78
550bcc78
550bcc78
550bcc78
550bcc78
550bcc78
550bcc78
550bcc78
550bcc78
550bcc78
550bcc78
550bcc78
550bcc78
550bcc78
550bcc78
550bcc78
550bcc78
550bcc78
550bcc78
550bcc78
550bcc78
550bcc78
550bcc78
550bcc78
550bcc78
550bcc78
550bcc78
550bcc78
550bcc78
550bcc78
550bcc78
550bcc78
550bcc78
550bcc78
550bcc78
550bcc78
550bcc78
550bcc78
550bcc78
550bcc78
550bcc78
550bcc78
550bcc78
550bcc78
550bcc78
550bcc78
550bcc78
550bcc78
550bcc78
550bcc78
550bcc78
550bcc78
550bcc78
550bcc78
550bcc78
550bcc78
550bcc78
550bcc78
550bcc78
550bcc78
550bcc78
550bcc78
550bcc78
550bcc78
550bcc78
550bcc78
550bcc78
550bcc78
550bcc78
550bcc78
550bcc78
550bcc78
550bcc78
550bcc78
550bcc78
550bcc78
550bcc78
550bcc78
550bcc78
550bcc78
550bcc78
550bcc78
550bcc78
550bcc78
550bcc78
550bcc78
550bcc78
550bcc78
550bcc78
550bcc78
550bcc78
550bcc78
550bcc78
550bcc78
550bcc78
550bcc78
550bcc78
550bcc78
550bcc78
550bcc78
550bcc78
550bcc78
550bcc78
550bcc78
550bcc78
550bcc78
550bcc78
550bcc78
550bcc78
550bcc78
550bcc78
550bcc78
550bcc78
550bcc78
550bcc78
550bcc78
550bcc78
550bcc78
550bcc78
550bcc78
550bcc78
550bcc78
550bcc78
550bcc78
550bcc78
550bcc78
550bcc78
550bcc78
550bcc78
550bcc78
550bcc78
550bcc78
550bcc78
550bcc78
550bcc78
550bcc78
550bcc78
550bcc78
550bcc78
550bcc78
550bcc78
550bcc78
550bcc78
550bcc78
550bcc78
550bcc78
550bcc78
550bcc78
550bcc78
550bcc78
550bcc78
550bcc78
550bcc78
550bcc78
550bcc78
550bcc78
550bcc78
550bcc78
550bcc78
550bcc78
550bcc78
550bcc78
550bcc78
550bcc78
550bcc78
550bcc78
550bcc78
550bcc78
550bcc78
550bcc78
550bcc78
550bcc78
550bcc78
550bcc78
550bcc78
550bcc78
550bcc78
550bcc78
550bcc78
550bcc78
550bcc78
550bcc78
550bcc78
550bcc78
550bcc78
550bcc78
550bcc78
550bcc78
550bcc78
550bcc78
550bcc78
550bcc78
550bcc78
550bcc78
550bcc78
550bcc78
550bcc78
550bcc78
550bcc78
550bcc78
550bcc78
550bcc78
550bcc78
550bcc78
550bcc78
550bcc78
550bcc78
550bcc78
550bcc78
550bcc78
550bcc78
550bcc78
550bcc78
550bcc78
550bcc78
550bcc78
550bcc78
550bcc78
550bcc78
550bcc78
550bcc78
550bcc78
550bcc78
550bcc78
550bcc78
550bcc78
550bcc78
550bcc78
550bcc78
550bcc78
550bcc78
550bcc78
550bcc78
550bcc78
550bcc78
550bcc78
550bcc78
550bcc78
550bcc78
550bcc78
550bcc78
550bcc78
550bcc78
550bcc78
550bcc78
550bcc78
550bcc78
550bcc78
550bcc78
550bcc78
550bcc78
550bcc78
550bcc78
550bcc78
550bcc78
550bcc78
550bcc78
550bcc78
550bcc78
550bcc78
550bcc78
550bcc78
550bcc78
550bcc78
550bcc78
550bcc78
550bcc78
550bcc78
550bcc78
550bcc78
550bcc78
550bcc78
550bcc78
550bcc78
550bcc78
550bcc78
550bcc78
550bcc78
550bcc78
550bcc78
550bcc78
550bcc78
550bcc78
550bcc78
550bcc78
550bcc78
550bcc78
550bcc78
550bcc78
550bcc78
550bcc78
550bcc78
550bcc78
550bcc78
550bcc78
550bcc78
550bcc78
550bcc78
550bcc78
550bcc78
550bcc78
550bcc78
550bcc78
550bcc78
550bcc78
550bcc78
550bcc78
550bcc78
550bcc78
550bcc78
550bcc78
550bcc78
550bcc78
550bcc78
550bcc78
550bcc78
550bcc78
550bcc78
550bcc78
550bcc78
550bcc78
550bcc78
550bcc78
550bcc78
550bcc78
550bcc78
550bcc78
550bcc78
550bcc78
550bcc78
550bcc78
550bcc78
550bcc78
550bcc78
550bcc78
550bcc78
550bcc78
550bcc78
550bcc78
550bcc78
550bcc78
550bcc78
550bcc78
550bcc78
550bcc78
550bcc78
550bcc78
550bcc78
550bcc78
550bcc78
550bcc78
550bcc78
550bcc78
550bcc78
550bcc78
550bcc78
550bcc78
550bcc78
550bcc78
550bcc78
550bcc78
550bcc78
550bcc78
550bcc78
550bcc78
550bcc78
550bcc78
550bcc78
550bcc78
550bcc78
550bcc78
550bcc78
550bcc78
550bcc78
550bcc78
550bcc78
550bcc78
550bcc78
550bcc78
550bcc78
550bcc78
550bcc78
550bcc78
550bcc78
550bcc78
550bcc78
550bcc78
550bcc78
550bcc78
550bcc78
550bcc78
550bcc78
550bcc78
550bcc78
550bcc78
550bcc78
550bcc78
550bcc78
550bcc78
550bcc78
550bcc78
550bcc78
550bcc78
550bcc78
550bcc78
550bcc78
550bcc78
550bcc78
550bcc78
550bcc78
550bcc78
550bcc78
550bcc78
550bcc78
550bcc78
550bcc78
550bcc78
550bcc78
550bcc78
550bcc78
550bcc78
550bcc78
550bcc78
550bcc78
550bcc78
550bcc78
550bcc78
550bcc78
550bcc78
550bcc78
550bcc78
550bcc78
550bcc78
550bcc78
550bcc78
550bcc78
550bcc78
550bcc78
550bcc78
550bcc78
550bcc78
550bcc78
550bcc78
550bcc78
550bcc78
550bcc78
550bcc78
550bcc78
550bcc78
550bcc78
550bcc78
550bcc78
550bcc78
550bcc78
550bcc78
550bcc78
550bcc78
550bcc78
550bcc78
550bcc78
550bcc78
550bcc78
550bcc78
550bcc78
550bcc78
550bcc78
550bcc78
550bcc78
550bcc78
550bcc78
550bcc78
550bcc78
550bcc78
550bcc78
550bcc78
550bcc78
550bcc78
550bcc78
550bcc78
550bcc78
550bcc78
550bcc78
550bcc78
550bcc78
550bcc78
550bcc78
550bcc78
550bcc78
550bcc78
550bcc78
550bcc78
550bcc78
550bcc78
550bcc78
550bcc78
550bcc78
550bcc78
550bcc78
550bcc78
550bcc78
550bcc78
550bcc78
550bcc78
550bcc78
550bcc78
550bcc78
550bcc78
550bcc78
550bcc78
550bcc78
550bcc78
550bcc78
550bcc78
550bcc78
550bcc78
550bcc78
550bcc78
550bcc78
550bcc78
550bcc78
550bcc78
550bcc78
550bcc78
550bcc78
550bcc78
550bcc78
550bcc78
550bcc78
550bcc78
550bcc78
550bcc78
550bcc78
550bcc78
550bcc78
550bcc78
550bcc78
550bcc78
550bcc78
550bcc78
550bcc78
550bcc78
550bcc78
550bcc78
550bcc78
550bcc78
550bcc78
550bcc78
550bcc78
550bcc78
550bcc78
550bcc78
550bcc78
550bcc78
550bcc78
550bcc78
550bcc78
550bcc78
550bcc78
550bcc78
550bcc78
550bcc78
550bcc78
550bcc78
550bcc78
550bcc78
550bcc78
550bcc78
550bcc78
550bcc78
550bcc78
550bcc78
550bcc78
550bcc78
550bcc78
550bcc78
550bcc78
550bcc78
550bcc78
550bcc78
550bcc78
550bcc78
550bcc78
550bcc78
550bcc78
550bcc78
550bcc78
550bcc78
550bcc78
550bcc78
550bcc78
550bcc78
550bcc78
550bcc78
550bcc78
550bcc78
550bcc78
550bcc78
550bcc78
550bcc78
550bcc78
550bcc78
550bcc78
550bcc78
550bcc78
550bcc78
550bcc78
550bcc78
550bcc78
550bcc78
550bcc78
550bcc78
550bcc78
550bcc78
550bcc78
550bcc78
550bcc78
550bcc78
550bcc78
550bcc78
550bcc78
550bcc78
550bcc78
550bcc78
550bcc78
550bcc78
550bcc78
550bcc78
550bcc78
550bcc78
550bcc78
550bcc78
550bcc78
550bcc78
550bcc78
550bcc78
550bcc78
550bcc78
550bcc78
550bcc78
550bcc78
550bcc78
550bcc78
550bcc78
550bcc78
550bcc78
550bcc78
550bcc78
550bcc78
550bcc78
550bcc78
550bcc78
550bcc78
550bcc78
550bcc78
550bcc78
550bcc78
550bcc78
550bcc78
550bcc78
550bcc78
550bcc78
550bcc78
550bcc78
550bcc78
550bcc78
550bcc78
550bcc78
550bcc78
550bcc78
550bcc78
550bcc78
550bcc78
550bcc78
550bcc78
550bcc78
550bcc78
550bcc78
550bcc78
550bcc78
550bcc78
550bcc78
550bcc78
550bcc78
550bcc78
550bcc78
550bcc78
550bcc78
550bcc78
550bcc78
550bcc78
550bcc78
550bcc78
550bcc78
550bcc78
550bcc78
550bcc78
550bcc78
550bcc78
550bcc78
550bcc78
550bcc78
550bcc78
550bcc78
550bcc78
550bcc78
550bcc78
550bcc78
550bcc78
550bcc78
550bcc78
550bcc78
550bcc78
550bcc78
550bcc78
550bcc78
550bcc78
550bcc78
550bcc78
550bcc78
550bcc78
550bcc78
550bcc78
550bcc78
550bcc78
550bcc78
550bcc78
550bcc78
550bcc78
550bcc78
550bcc78
550bcc78
550bcc78
550bcc78
550bcc78
550bcc78
550bcc78
550bcc78
550bcc78
550bcc78
550bcc78
550bcc78
550bcc78
550bcc78
550bcc78
550bcc78
550bcc78
550bcc78
550bcc78
550bcc78
550bcc78
550bcc78
550bcc78
550bcc78
550bcc78
550bcc78
550bcc78
550bcc78
550bcc78
550bcc78
550bcc78
550bcc78
550bcc78
550bcc78
550bcc78
550bcc78
550bcc78
550bcc78
550bcc78
550bcc78
550bcc78
550bcc78
550bcc78
550bcc78
550bcc78
550bcc78
550bcc78
550bcc78
550bcc78
550bcc78
550bcc78
550bcc78
550bcc78
550bcc78
550bcc78
550bcc78
550bcc78
550bcc78
550bcc78
550bcc78
550bcc78
550bcc78
550bcc78
550bcc78
550bcc78
550bcc78
550bcc78
550bcc78
550bcc78
550bcc78
550bcc78
550bcc78
550bcc78
550bcc78
550bcc78
550bcc78
550bcc78
550bcc78
550bcc78
550bcc78
550bcc78
550bcc78
550bcc78
550bcc78
550bcc78
550bcc78
550bcc78
550bcc78
550bcc78
550bcc78
550bcc78
550bcc78
550bcc78
550bcc78
550bcc78
550bcc78
550bcc78
550bcc78
550bcc78
550bcc78
550bcc78
550bcc78
550bcc78
550bcc78
550bcc78
550bcc78
550bcc78
550bcc78
550bcc78
550bcc78
550bcc78
550bcc78
550bcc78
550bcc78
550bcc78
550bcc78
550bcc78
550bcc78
550bcc78
550bcc78
550bcc78
550bcc78
550bcc78
550bcc78
550bcc78
550bcc78
550bcc78
550bcc78
550bcc78
550bcc78
550bcc78
550bcc78
550bcc78
550bcc78
550bcc78
550bcc78
550bcc78
550bcc78
550bcc78
550bcc78
550bcc78
550bcc78
550bcc78
550bcc78
550bcc78
550bcc78
550bcc78
550bcc78
550bcc78
550bcc78
550bcc78
550bcc78
550bcc78
550bcc78
550bcc78
550bcc78
550bcc78
550bcc78
550bcc78
550bcc78
550bcc78
550bcc78
550bcc78
550bcc78
550bcc78
550bcc78
550bcc78
550bcc78
550bcc78
550bcc78
550bcc78
550bcc78
550bcc78
550bcc78
550bcc78
550bcc78
550bcc78
550bcc78
550bcc78
550bcc78
550bcc78
550bcc78
550bcc78
550bcc78
550bcc78
550bcc78
550bcc78
550bcc78
550bcc78
550bcc78
550bcc78
550bcc78
550bcc78
550bcc78
550bcc78
550bcc78
550bcc78
550bcc78
550bcc78
550bcc78
550bcc78
550bcc78
550bcc78
550bcc78
550bcc78
550bcc78
550bcc78
550bcc78
550bcc78
550bcc78
550bcc78
550bcc78
550bcc78
550bcc78
550bcc78
550bcc78
550bcc78
550bcc78
550bcc78
550bcc78
550bcc78
550bcc78
550bcc78
550bcc78
550bcc78
550bcc78
550bcc78
550bcc78
550bcc78
550bcc78
550bcc78
550bcc78
550bcc78
550bcc78
550bcc78
550bcc78
550bcc78
550bcc78
550bcc78
550bcc78
550bcc78
550bcc78
550bcc78
550bcc78
550bcc78
550bcc78
550bcc78
550bcc78
550bcc78
550bcc78
550bcc78
550bcc78
550bcc78
550bcc78
550bcc78
550bcc78
550bcc78
550bcc78
550bcc78
550bcc78
550bcc78
550bcc78
550bcc78
550bcc78
550bcc78
550bcc78
550bcc78
550bcc78
550bcc78
550bcc78
550bcc78
550bcc78
550bcc78
550bcc78
550bcc78
550bcc78
550bcc78
550bcc78
550bcc78
550bcc78
550bcc78
550bcc78
550bcc78
550bcc78
550bcc78
550bcc78
550bcc78
550bcc78
550bcc78
550bcc78
550bcc78
550bcc78
550bcc78
550bcc78
550bcc78
550bcc78
550bcc78
550bcc78
550bcc78
550bcc78
550bcc78
550bcc78
550bcc78
550bcc78
550bcc78
550bcc78
550bcc78
550bcc78
550bcc78
550bcc78
550bcc78
550bcc78
550bcc78
550bcc78
550bcc78
550bcc78
550bcc78
550bcc78
550bcc78
550bcc78
550bcc78
550bcc78
550bcc78
550bcc78
550bcc78
550bcc78
550bcc78
550bcc78
550bcc78
550bcc78
550bcc78
550bcc78
550bcc78
550bcc78
550bcc78
550bcc78
550bcc78
550bcc78
550bcc78
550bcc78
550bcc78
550bcc78
550bcc78
550bcc78
550bcc78
550bcc78
550bcc78
550bcc78
550bcc78
550bcc78
550bcc78
550bcc78
550bcc78
550bcc78
550bcc78
550bcc78
550bcc78
550bcc78
550bcc78
550bcc78
550bcc78
550bcc78
550bcc78
550bcc78
550bcc78
550bcc78
550bcc78
550bcc78
550bcc78
550bcc78
550bcc78
550bcc78
550bcc78
550bcc78
550bcc78
550bcc78
550bcc78
550bcc78
550bcc78
550bcc78
550bcc78
550bcc78
550bcc78
550bcc78
550bcc78
550bcc78
550bcc78
550bcc78
550bcc78
550bcc78
550bcc78
550bcc78
550bcc78
550bcc78
550bcc78
550bcc78
550bcc78
550bcc78
550bcc78
550bcc78
550bcc78
550bcc78
550bcc78
550bcc78
550bcc78
550bcc78
550bcc78
550bcc78
550bcc78
550bcc78
550bcc78
550bcc78
550bcc78
550bcc78
550bcc78
550bcc78
550bcc78
550bcc78
550bcc78
550bcc78
550bcc78
550bcc78
550bcc78
550bcc78
550bcc78
550bcc78
550bcc78
550bcc78
550bcc78
550bcc78
550bcc78
550bcc78
550bcc78
550bcc78
550bcc78
550bcc78
550bcc78
550bcc78
550bcc78
550bcc78
550bcc78
550bcc78
550bcc78
550bcc78
550bcc78
550bcc78
550bcc78
550bcc78
550bcc78
550bcc78
550bcc78
550bcc78
550bcc78
550bcc78
550bcc78
550bcc78
550bcc78
550bcc78
550bcc78
550bcc78
550bcc78
550bcc78
550bcc78
550bcc78
550bcc78
550bcc78
550bcc78
550bcc78
550bcc78
550bcc78
550bcc78
550bcc78
550bcc78
550bcc78
550bcc78
550bcc78
550bcc78
550bcc78
550bcc78
550bcc78
550bcc78
550bcc78
550bcc78
550bcc78
550bcc78
550bcc78
550bcc78
550bcc78
550bcc78
550bcc78
550bcc78
550bcc78
550bcc78
550bcc78
550bcc78
550bcc78
550bcc78
550bcc78
550bcc78
550bcc78
550bcc78
550bcc78
550bcc78
550bcc78
550bcc78
550bcc78
550bcc78
550bcc78
550bcc78
550bcc78
550bcc78
550bcc78
550bcc78
550bcc78
550bcc78
550bcc78
550bcc78
550bcc78
550bcc78
550bcc78
550bcc78
550bcc78
550bcc78
550bcc78
550bcc78
550bcc78
550bcc78
550bcc78
550bcc78
550bcc78
550bcc78
550bcc78
550bcc78
550bcc78
550bcc78
550bcc78
550bcc78
550bcc78
550bcc78
550bcc78
550bcc78
550bcc78
550bcc78
550bcc78
550bcc78
550bcc78
550bcc78
550bcc78
550bcc78
550bcc78
550bcc78
550bcc78
550bcc78
550bcc78
550bcc78
550bcc78
550bcc78
550bcc78
550bcc78
550bcc78
550bcc78
550bcc78
550bcc78
550bcc78
550bcc78
550bcc78
550bcc78
550bcc78
550bcc78
550bcc78
550bcc78
550bcc78
550bcc78
550bcc78
550bcc78
550bcc78
550bcc78
550bcc78
550bcc78
550bcc78
550bcc78
550bcc78
550bcc78
550bcc78
550bcc78
550bcc78
550bcc78
550bcc78
550bcc78
550bcc78
550bcc78
550bcc78
550bcc78
550bcc78
550bcc78
550bcc78
550bcc78
550bcc78
550bcc78
550bcc78
550bcc78
550bcc78
550bcc78
550bcc78
550bcc78
550bcc78
550bcc78
550bcc78
550bcc78
550bcc78
550bcc78
550bcc78
550bcc78
550bcc78
550bcc78
550bcc78
550bcc78
550bcc78
550bcc78
550bcc78
550bcc78
550bcc78
550bcc78
550bcc78
550bcc78
550bcc78
550bcc78
550bcc78
550bcc78
550bcc78
550bcc78
550bcc78
550bcc78
550bcc78
550bcc78
550bcc78
550bcc78
550bcc78
550bcc78
550bcc78
550bcc78
550bcc78
550bcc78
550bcc78
550bcc78
550bcc78
550bcc78
550bcc78
550bcc78
550bcc78
550bcc78
550bcc78
550bcc78
550bcc78
550bcc78
550bcc78
550bcc78
550bcc78
550bcc78
550bcc78
550bcc78
550bcc78
550bcc78
550bcc78
550bcc78
550bcc78
550bcc78
550bcc78
550bcc78
550bcc78
550bcc78
550bcc78
550bcc78
550bcc78
550bcc78
550bcc78
550bcc78
550bcc78
550bcc78
550bcc78
550bcc78
550bcc78
550bcc78
550bcc78
550bcc78
550bcc78
550bcc78
550bcc78
550bcc78
550bcc78
550bcc78
550bcc78
550bcc78
550bcc78
550bcc78
550bcc78
550bcc78
550bcc78
550bcc78
550bcc78
550bcc78
550bcc78
550bcc78
550bcc78
550bcc78
550bcc78
550bcc78
550bcc78
550bcc78
550bcc78
550bcc78
550bcc78
550bcc78
550bcc78
550bcc78
550bcc78
550bcc78
550bcc78
550bcc78
550bcc78
550bcc78
550bcc78
550bcc78
550bcc78
550bcc78
550bcc78
550bcc78
550bcc78
550bcc78
550bcc78
550bcc78
550bcc78
550bcc78
550bcc78
550bcc78
550bcc78
550bcc78
550bcc78
550bcc78
550bcc78
550bcc78
550bcc78
550bcc78
550bcc78
550bcc78
550bcc78
550bcc78
550bcc78
550bcc78
550bcc78
550bcc78
550bcc78
550bcc78
550bcc78
550bcc78
550bcc78
550bcc78
550bcc78
550bcc78
550bcc78
550bcc78
550bcc78
550bcc78
550bcc78
550bcc78
550bcc78
550bcc78
550bcc78
550bcc78
550bcc78
550bcc78
550bcc78
550bcc78
550bcc78
550bcc78
550bcc78
550bcc78
550bcc78
550bcc78
550bcc78
550bcc78
550bcc78
550bcc78
550bcc78
550bcc78
550bcc78
550bcc78
550bcc78
550bcc78
550bcc78
550bcc78
550bcc78
550bcc78
550bcc78
550bcc78
550bcc78
550bcc78
550bcc78
550bcc78
550bcc78
550bcc78
550bcc78
550bcc78
550bcc78
550bcc78
550bcc78
550bcc78
550bcc78
550bcc78
550bcc78
550bcc78
550bcc78
550bcc78
550bcc78
550bcc78
550bcc78
550bcc78
550bcc78
550bcc78
550bcc78
550bcc78
550bcc78
550bcc78
550bcc78
550bcc78
550bcc78
550bcc78
550bcc78
550bcc78
550bcc78
550bcc78
550bcc78
550bcc78
550bcc78
550bcc78
550bcc78
550bcc78
550bcc78
550bcc78
550bcc78
550bcc78
550bcc78
550bcc78
550bcc78
550bcc78
550bcc78
550bcc78
550bcc78
550bcc78
550bcc78
550bcc78
550bcc78
550bcc78
550bcc78
550bcc78
550bcc78
550bcc78
550bcc78
550bcc78
550bcc78
550bcc78
550bcc78
550bcc78
550bcc78
550bcc78
550bcc78
550bcc78
550bcc78
550bcc78
550bcc78
550bcc78
550bcc78
550bcc78
550bcc78
550bcc78
550bcc78
550bcc78
550bcc78
550bcc78
550bcc78
550bcc78
550bcc78
550bcc78
550bcc78
550bcc78
550bcc78
550bcc78
550bcc78
550bcc78
550bcc78
550bcc78
550bcc78
550bcc78
550bcc78
550bcc78
550bcc78
550bcc78
550bcc78
550bcc78
550bcc78
550bcc78
550bcc78
550bcc78
550bcc78
550bcc78
550bcc78
550bcc78
550bcc78
550bcc78
550bcc78
550bcc78
550bcc78
550bcc78
550bcc78
550bcc78
550bcc78
550bcc78
550bcc78
550bcc78
550bcc78
550bcc78
550bcc78
550bcc78
550bcc78
550bcc78
550bcc78
550bcc78
550bcc78
550bcc78
550bcc78
550bcc78
550bcc78
550bcc78
550bcc78
550bcc78
550bcc78
550bcc78
550bcc78
550bcc78
550bcc78
550bcc78
550bcc78
550bcc78
550bcc78
550bcc78
550bcc78
550bcc78
550bcc78
550bcc78
550bcc78
550bcc78
550bcc78
550bcc78
550bcc78
550bcc78
550bcc78
550bcc78
550bcc78
550bcc78
550bcc78
550bcc78
550bcc78
550bcc78
550bcc78
550bcc78
550bcc78
550bcc78
550bcc78
550bcc78
550bcc78
550bcc78
550bcc78
550bcc78
550bcc78
550bcc78
550bcc78
550bcc78
550bcc78
550bcc78
550bcc78
550bcc78
550bcc78
550bcc78
550bcc78
550bcc78
550bcc78
550bcc78
550bcc78
550bcc78
550bcc78
550bcc78
550bcc78
550bcc78
550bcc78
550bcc78
550bcc78
550bcc78
550bcc78
550bcc78
550bcc78
550bcc78
550bcc78
550bcc78
550bcc78
550bcc78
550bcc78
550bcc78
550bcc78
550bcc78
550bcc78
550bcc78
550bcc78
550bcc78
550bcc78
550bcc78
550bcc78
550bcc78
550bcc78
550bcc78
550bcc78
550bcc78
550bcc78
550bcc78
550bcc78
550bcc78
550bcc78
550bcc78
550bcc78
550bcc78
550bcc78
550bcc78
550bcc78
550bcc78
550bcc78
550bcc78
550bcc78
550bcc78
550bcc78
550bcc78
550bcc78
550bcc78
550bcc78
550bcc78
550bcc78
550bcc78
550bcc78
550bcc78
550bcc78
550bcc78
550bcc78
550bcc78
550bcc78
550bcc78
550bcc78
550bcc78
550bcc78
550bcc78
550bcc78
550bcc78
550bcc78
550bcc78
550bcc78
550bcc78
550bcc78
550bcc78
550bcc78
550bcc78
550bcc78
550bcc78
550bcc78
550bcc78
550bcc78
550bcc78
550bcc78
550bcc78
550bcc78
550bcc78
550bcc78
550bcc78
550bcc78
550bcc78
550bcc78
550bcc78
550bcc78
550bcc78
550bcc78
550bcc78
550bcc78
550bcc78
550bcc78
550bcc78
550bcc78
550bcc78
550bcc78
550bcc78
550bcc78
550bcc78
550bcc78
550bcc78
550bcc78
550bcc78
550bcc78
550bcc78
550bcc78
550bcc78
550bcc78
550bcc78
550bcc78
550bcc78
550bcc78
550bcc78
550bcc78
550bcc78
550bcc78
550bcc78
550bcc78
550bcc78
550bcc78
550bcc78
550bcc78
550bcc78
550bcc78
550bcc78
550bcc78
550bcc78
550bcc78
550bcc78
550bcc78
550bcc78
550bcc78
550bcc78
550bcc78
550bcc78
550bcc78
550bcc78
550bcc78
550bcc78
550bcc78
550bcc78
550bcc78
550bcc78
550bcc78
550bcc78
550bcc78
550bcc78
550bcc78
550bcc78
550bcc78
550bcc78
550bcc78
550bcc78
550bcc78
550bcc78
550bcc78
550bcc78
550bcc78
550bcc78
550bcc78
550bcc78
550bcc78
550bcc78
550bcc78
550bcc78
550bcc78
550bcc78
550bcc78
550bcc78
550bcc78
550bcc78
550bcc78
550bcc78
550bcc78
550bcc78
550bcc78
550bcc78
550bcc78
550bcc78
550bcc78
550bcc78
550bcc78
550bcc78
550bcc78
550bcc78
550bcc78
550bcc78
550bcc78
550bcc78
550bcc78
550bcc78
550bcc78
550bcc78
550bcc78
550bcc78
550bcc78
550bcc78
550bcc78
550bcc78
550bcc78
550bcc78
550bcc78
550bcc78
550bcc78
550bcc78
550bcc78
550bcc78
550bcc78
550bcc78
550bcc78
550bcc78
550bcc78
550bcc78
550bcc78
550bcc78
550bcc78
550bcc78
550bcc78
550bcc78
550bcc78
550bcc78
550bcc78
550bcc78
550bcc78
550bcc78
550bcc78
550bcc78
550bcc78
550bcc78
550bcc78
550bcc78
550bcc78
550bcc78
550bcc78
550bcc78
550bcc78
550bcc78
550bcc78
550bcc78
550bcc78
550bcc78
550bcc78
550bcc78
550bcc78
550bcc78
550bcc78
550bcc78
550bcc78
550bcc78
550bcc78
550bcc78
550bcc78
550bcc78
550bcc78
550bcc78
550bcc78
550bcc78
550bcc78
550bcc78
550bcc78
550bcc78
550bcc78
550bcc78
550bcc78
550bcc78
550bcc78
550bcc78
550bcc78
550bcc78
550bcc78
550bcc78
550bcc78
550bcc78
550bcc78
550bcc78
550bcc78
550bcc78
550bcc78
550bcc78
550bcc78
550bcc78
550bcc78
550bcc78
550bcc78
550bcc78
550bcc78
550bcc78
550bcc78
550bcc78
550bcc78
550bcc78
550bcc78
550bcc78
550bcc78
550bcc78
550bcc78
550bcc78
550bcc78
550bcc78
550bcc78
550bcc78
550bcc78
550bcc78
550bcc78
550bcc78
550bcc78
550bcc78
550bcc78
550bcc78
550bcc78
550bcc78
550bcc78
550bcc78
550bcc78
550bcc78
550bcc78
550bcc78
550bcc78
550bcc78
550bcc78
550bcc78
550bcc78
550bcc78
550bcc78
550bcc78
550bcc78
550bcc78
550bcc78
550bcc78
550bcc78
550bcc78
550bcc78
550bcc78
550bcc78
550bcc78
550bcc78
550bcc78
550bcc78
550bcc78
550bcc78
550bcc78
550bcc78
550bcc78
550bcc78
550bcc78
550bcc78
550bcc78
550bcc78
550bcc78
550bcc78
550bcc78
550bcc78
550bcc78
550bcc78
550bcc78
550bcc78
550bcc78
550bcc78
550bcc78
550bcc78
550bcc78
550bcc78
550bcc78
550bcc78
550bcc78
550bcc78
550bcc78
550bcc78
550bcc78
550bcc78
550bcc78
550bcc78
550bcc78
550bcc78
550bcc78
550bcc78
550bcc78
550bcc78
550bcc78
550bcc78
550bcc78
550bcc78
550bcc78
550bcc78
550bcc78
550bcc78
550bcc78
550bcc78
550bcc78
550bcc78
550bcc78
550bcc78
550bcc78
550bcc78
550bcc78
550bcc78
550bcc78
550bcc78
550bcc78
550bcc78
550bcc78
550bcc78
550bcc78
550bcc78
550bcc78
550bcc78
550bcc78
550bcc78
550bcc78
550bcc78
550bcc78
550bcc78
550bcc78
550bcc78
550bcc78
550bcc78
550bcc78
550bcc78
550bcc78
550bcc78
550bcc78
550bcc78
550bcc78
550bcc78
550bcc78
550bcc78
550bcc78
550bcc78
550bcc78
550bcc78
550bcc78
550bcc78
550bcc78
550bcc78
550bcc78
550bcc78
550bcc78
550bcc78
550bcc78
550bcc78
550bcc78
550bcc78
550bcc78
550bcc78
550bcc78
550bcc78
550bcc78
550bcc78
550bcc78
550bcc78
550bcc78
550bcc78
550bcc78
550bcc78
550bcc78
550bcc78
550bcc78
550bcc78
550bcc78
550bcc78
550bcc78
550bcc78
550bcc78
550bcc78
550bcc78
550bcc78
550bcc78
550bcc78
550bcc78
550bcc78
550bcc78
550bcc78
550bcc78
550bcc78
550bcc78
550bcc78
550bcc78
550bcc78
550bcc78
550bcc78
550bcc78
550bcc78
550bcc78
550bcc78
550bcc78
550bcc78
550bcc78
550bcc78
550bcc78
550bcc78
550bcc78
550bcc78
550bcc78
550bcc78
550bcc78
550bcc78
550bcc78
550bcc78
550bcc78
550bcc78
550bcc78
550bcc78
550bcc78
550bcc78
550bcc78
550bcc78
550bcc78
550bcc78
550bcc78
550bcc78
550bcc78
550bcc78
550bcc78
550bcc78
550bcc78
550bcc78
550bcc78
550bcc78
550bcc78
550bcc78
550bcc78
550bcc78
550bcc78
550bcc78
550bcc78
550bcc78
550bcc78
550bcc78
550bcc78
550bcc78
550bcc78
550bcc78
550bcc78
550bcc78
550bcc78
550bcc78
550bcc78
550bcc78
550bcc78
550bcc78
550bcc78
550bcc78
550bcc78
550bcc78
550bcc78
550bcc78
550bcc78
550bcc78
550bcc78
550bcc78
550bcc78
550bcc78
550bcc78
550bcc78
550bcc78
550bcc78
550bcc78
550bcc78
550bcc78
550bcc78
550bcc78
550bcc78
550bcc78
550bcc78
550bcc78
550bcc78
550bcc78
550bcc78
550bcc78
550bcc78
550bcc78
550bcc78
550bcc78
550bcc78
550bcc78
550bcc78
550bcc78
550bcc78
550bcc78
550bcc78
550bcc78
550bcc78
550bcc78
550bcc78
550bcc78
550bcc78
550bcc78
550bcc78
550bcc78
550bcc78
550bcc78
550bcc78
550bcc78
550bcc78
550bcc78
550bcc78
550bcc78
550bcc78
550bcc78
550bcc78
550bcc78
550bcc78
550bcc78
550bcc78
550bcc78
550bcc78
550bcc78
550bcc78
550bcc78
550bcc78
550bcc78
550bcc78
550bcc78
550bcc78
550bcc78
550bcc78
550bcc78
550bcc78
550bcc78
550bcc78
550bcc78
550bcc78
550bcc78
550bcc78
550bcc78
550bcc78
550bcc78
550bcc78
550bcc78
550bcc78
550bcc78
550bcc78
550bcc78
550bcc78
550bcc78
550bcc78
550bcc78
550bcc78
550bcc78
550bcc78
550bcc78
550bcc78
550bcc78
550bcc78
550bcc78
550bcc78
550bcc78
550bcc78
550bcc78
550bcc78
550bcc78
550bcc78
550bcc78
550bcc78
550bcc78
550bcc78
550bcc78
550bcc78
550bcc78
550bcc78
550bcc78
550bcc78
550bcc78
550bcc78
550bcc78
550bcc78
550bcc78
550bcc78
550bcc78
550bcc78
550bcc78
550bcc78
550bcc78
550bcc78
550bcc78
550bcc78
550bcc78
550bcc78
550bcc78
550bcc78
550bcc78
550bcc78
550bcc78
550bcc78
550bcc78
550bcc78
550bcc78
550bcc78
550bcc78
550bcc78
550bcc78
550bcc78
550bcc78
550bcc78
550bcc78
550bcc78
550bcc78
550bcc78
550bcc78
550bcc78
550bcc78
550bcc78
550bcc78
550bcc78
550bcc78
550bcc78
550bcc78
550bcc78
550bcc78
550bcc78
550bcc78
550bcc78
550bcc78
550bcc78
550bcc78
550bcc78
550bcc78
550bcc78
550bcc78
550bcc78
550bcc78
550bcc78
550bcc78
550bcc78
550bcc78
550bcc78
550bcc78
550bcc78
550bcc78
550bcc78
550bcc78
550bcc78
550bcc78
550bcc78
550bcc78
550bcc78
550bcc78
550bcc78
550bcc78
550bcc78
550bcc78
550bcc78
550bcc78
550bcc78
550bcc78
550bcc78
550bcc78
550bcc78
550bcc78
550bcc78
550bcc78
550bcc78
550bcc78
550bcc78
550bcc78
550bcc78
550bcc78
550bcc78
550bcc78
550bcc78
550bcc78
550bcc78
550bcc78
550bcc78
550bcc78
550bcc78
550bcc78
550bcc78
550bcc78
550bcc78
550bcc78
550bcc78
550bcc78
550bcc78
550bcc78
550bcc78
550bcc78
550bcc78
550bcc78
550bcc78
550bcc78
550bcc78
550bcc78
550bcc78
550bcc78
550bcc78
550bcc78
550bcc78
550bcc78
550bcc78
550bcc78
550bcc78
550bcc78
550bcc78
550bcc78
550bcc78
550bcc78
550bcc78
550bcc78
550bcc78
550bcc78
550bcc78
550bcc78
550bcc78
550bcc78
550bcc78
550bcc78
550bcc78
550bcc78
550bcc78
550bcc78
550bcc78
550bcc78
550bcc78
550bcc78
550bcc78
550bcc78
550bcc78
550bcc78
550bcc78
550bcc78
550bcc78
550bcc78
550bcc78
550bcc78
550bcc78
550bcc78
550bcc78
550bcc78
550bcc78
550bcc78
550bcc78
550bcc78
550bcc78
550bcc78
550bcc78
550bcc78
550bcc78
550bcc78
550bcc78
550bcc78
550bcc78
550bcc78
550bcc78
550bcc78
550bcc78
550bcc78
550bcc78
550bcc78
550bcc78
550bcc78
550bcc78
550bcc78
550bcc78
550bcc78
550bcc78
550bcc78
550bcc78
550bcc78
550bcc78
550bcc78
550bcc78
550bcc78
550bcc78
550bcc78
550bcc78
550bcc78
550bcc78
550bcc78
550bcc78
550bcc78
550bcc78
550bcc78
550bcc78
550bcc78
550bcc78
550bcc78
550bcc78
550bcc78
550bcc78
550bcc78
550bcc78
550bcc78
550bcc78
550bcc78
550bcc78
550bcc78
550bcc78
550bcc78
550bcc78
550bcc78
550bcc78
550bcc78
550bcc78
550bcc78
550bcc78
550bcc78
550bcc78
550bcc78
550bcc78
550bcc78
550bcc78
550bcc78
550bcc78
550bcc78
550bcc78
550bcc78
550bcc78
550bcc78
550bcc78
550bcc78
550bcc78
550bcc78
550bcc78
550bcc78
550bcc78
550bcc78
550bcc78
550bcc78
550bcc78
550bcc78
550bcc78
550bcc78
550bcc78
550bcc78
550bcc78
550bcc78
550bcc78
550bcc78
550bcc78
550bcc78
550bcc78
550bcc78
550bcc78
550bcc78
550bcc78
550bcc78
550bcc78
550bcc78
550bcc78
550bcc78
550bcc78
550bcc78
550bcc78
550bcc78
550bcc78
550bcc78
550bcc78
550bcc78
550bcc78
550bcc78
550bcc78
550bcc78
550bcc78
550bcc78
550bcc78
550bcc78
550bcc78
550bcc78
550bcc78
550bcc78
550bcc78
550bcc78
550bcc78
550bcc78
550bcc78
550bcc78
550bcc78
550bcc78
550bcc78
550bcc78
550bcc78
550bcc78
550bcc78
550bcc78
550bcc78
550bcc78
550bcc78
550bcc78
550bcc78
550bcc78
550bcc78
550bcc78
550bcc78
550bcc78
550bcc78
550bcc78
550bcc78
550bcc78
550bcc78
550bcc78
550bcc78
550bcc78
550bcc78
550bcc78
550bcc78
550bcc78
550bcc78
550bcc78
550bcc78
550bcc78
550bcc78
550bcc78
550bcc78
550bcc78
550bcc78
550bcc78
550bcc78
550bcc78
550bcc78
550bcc78
550bcc78
550bcc78
550bcc78
550bcc78
550bcc78
550bcc78
550bcc78
550bcc78
550bcc78
550bcc78
550bcc78
550bcc78
550bcc78
550bcc78
550bcc78
550bcc78
550bcc78
550bcc78
550bcc78
550bcc78
550bcc78
550bcc78
550bcc78
550bcc78
550bcc78
550bcc78
550bcc78
550bcc78
550bcc78
550bcc78
550bcc78
550bcc78
550bcc78
550bcc78
550bcc78
550bcc78
550bcc78
550bcc78
550bcc78
550bcc78
550bcc78
550bcc78
550bcc78
550bcc78
550bcc78
550bcc78
550bcc78
550bcc78
550bcc78
550bcc78
550bcc78
550bcc78
550bcc78
550bcc78
550bcc78
550bcc78
550bcc78
550bcc78
550bcc78
550bcc78
550bcc78
550bcc78
550bcc78
550bcc78
550bcc78
550bcc78
550bcc78
550bcc78
550bcc78
550bcc78
550bcc78
550bcc78
550bcc78
550bcc78
550bcc78
550bcc78
550bcc78
550bcc78
550bcc78
550bcc78
550bcc78
550bcc78
550bcc78
550bcc78
550bcc78
550bcc78
550bcc78
550bcc78
550bcc78
550bcc78
550bcc78
550bcc78
550bcc78
550bcc78
550bcc78
550bcc78
550bcc78
550bcc78
550bcc78
550bcc78
550bcc78
550bcc78
550bcc78
550bcc78
550bcc78
550bcc78
550bcc78
550bcc78
550bcc78
550bcc78
550bcc78
550bcc78
550bcc78
550bcc78
550bcc78
550bcc78
550bcc78
550bcc78
550bcc78
550bcc78
550bcc78
550bcc78
550bcc78
550bcc78
550bcc78
550bcc78
550bcc78
550bcc78
550bcc78
550bcc78
550bcc78
550bcc78
550bcc78
550bcc78
550bcc78
550bcc78
550bcc78
550bcc78
550bcc78
550bcc78
550bcc78
550bcc78
550bcc78
550bcc78
550bcc78
550bcc78
550bcc78
550bcc78
550bcc78
550bcc78
550bcc78
550bcc78
550bcc78
550bcc78
550bcc78
550bcc78
550bcc78
550bcc78
550bcc78
550bcc78
550bcc78
550bcc78
550bcc78
550bcc78
550bcc78
550bcc78
550bcc78
550bcc78
550bcc78
550bcc78
550bcc78
550bcc78
550bcc78
550bcc78
550bcc78
550bcc78
550bcc78
550bcc78
550bcc78
550bcc78
550bcc78
550bcc78
550bcc78
550bcc78
550bcc78
550bcc78
550bcc78
550bcc78
550bcc78
550bcc78
550bcc78
550bcc78
550bcc78
550bcc78
550bcc78
550bcc78
550bcc78
550bcc78
550bcc78
550bcc78
550bcc78
550bcc78
550bcc78
550bcc78
550bcc78
550bcc78
550bcc78
550bcc78
550bcc78
550bcc78
550bcc78
550bcc78
550bcc78
550bcc78
550bcc78
550bcc78
550bcc78
550bcc78
550bcc78
550bcc78
550bcc78
550bcc78
550bcc78
550bcc78
550bcc78
550bcc78
550bcc78
550bcc78
550bcc78
550bcc78
550bcc78
550bcc78
550bcc78
550bcc78
550bcc78
550bcc78
550bcc78
550bcc78
550bcc78
550bcc78
550bcc78
550bcc78
550bcc78
550bcc78
550bcc78
550bcc78
550bcc78
550bcc78
550bcc78
550bcc78
550bcc78
550bcc78
550bcc78
550bcc78
550bcc78
550bcc78
550bcc78
550bcc78
550bcc78
550bcc78
550bcc78
550bcc78
550bcc78
550bcc78
550bcc78
550bcc78
550bcc78
550bcc78
550bcc78
550bcc78
550bcc78
550bcc78
550bcc78
550bcc78
550bcc78
550bcc78
550bcc78
550bcc78
550bcc78
550bcc78
550bcc78
550bcc78
550bcc78
550bcc78
550bcc78
550bcc78
550bcc78
550bcc78
550bcc78
550bcc78
550bcc78
550bcc78
550bcc78
550bcc78
550bcc78
550bcc78
550bcc78
550bcc78
550bcc78
550bcc78
550bcc78
550bcc78
550bcc78
550bcc78
550bcc78
550bcc78
550bcc78
550bcc78
550bcc78
550bcc78
550bcc78
550bcc78
550bcc78
550bcc78
550bcc78
550bcc78
550bcc78
550bcc78
550bcc78
550bcc78
550bcc78
550bcc78
550bcc78
550bcc78
550bcc78
550bcc78
550bcc78
550bcc78
550bcc78
550bcc78
550bcc78
550bcc78
550bcc78
550bcc78
550bcc78
550bcc78
550bcc78
550bcc78
550bcc78
550bcc78
550bcc78
550bcc78
550bcc78
550bcc78
550bcc78
550bcc78
550bcc78
550bcc78
550bcc78
550bcc78
550bcc78
550bcc78
550bcc78
550bcc78
550bcc78
550bcc78
550bcc78
550bcc78
550bcc78
550bcc78
550bcc78
550bcc78
550bcc78
550bcc78
550bcc78
550bcc78
550bcc78
550bcc78
550bcc78
550bcc78
550bcc78
550bcc78
550bcc78
550bcc78
550bcc78
550bcc78
550bcc78
550bcc78
550bcc78
550bcc78
550bcc78
550bcc78
550bcc78
550bcc78
550bcc78
550bcc78
550bcc78
550bcc78
550bcc78
550bcc78
550bcc78
550bcc78
550bcc78
550bcc78
550bcc78
550bcc78
550bcc78
550bcc78
550bcc78
550bcc78
550bcc78
550bcc78
550bcc78
550bcc78
550bcc78
550bcc78
550bcc78
550bcc78
550bcc78
550bcc78
550bcc78
550bcc78
550bcc78
550bcc78
550bcc78
550bcc78
550bcc78
550bcc78
550bcc78
550bcc78
550bcc78
550bcc78
550bcc78
550bcc78
550bcc78
550bcc78
550bcc78
550bcc78
550bcc78
550bcc78
550bcc78
550bcc78
550bcc78
550bcc78
550bcc78
550bcc78
550bcc78
550bcc78
550bcc78
550bcc78
550bcc78
550bcc78
550bcc78
550bcc78
550bcc78
550bcc78
550bcc78
550bcc78
550bcc78
550bcc78
550bcc78
550bcc78
550bcc78
550bcc78
550bcc78
550bcc78
550bcc78
550bcc78
550bcc78
550bcc78
550bcc78
550bcc78
550bcc78
550bcc78
550bcc78
550bcc78
550bcc78
550bcc78
550bcc78
550bcc78
550bcc78
550bcc78
550bcc78
550bcc78
550bcc78
550bcc78
550bcc78
550bcc78
550bcc78
550bcc78
550bcc78
550bcc78
550bcc78
550bcc78
550bcc78
550bcc78
550bcc78
550bcc78
550bcc78
550bcc78
550bcc78
550bcc78
550bcc78
550bcc78
550bcc78
550bcc78
550bcc78
550bcc78
550bcc78
550bcc78
550bcc78
550bcc78
550bcc78
550bcc78
550bcc78
550bcc78
550bcc78
550bcc78
550bcc78
550bcc78
550bcc78
550bcc78
550bcc78
550bcc78
550bcc78
550bcc78
550bcc78
550bcc78
550bcc78
550bcc78
550bcc78
550bcc78
550bcc78
550bcc78
550bcc78
550bcc78
550bcc78
550bcc78
550bcc78
550bcc78
550bcc78
550bcc78
550bcc78
550bcc78
550bcc78
550bcc78
550bcc78
550bcc78
550bcc78
550bcc78
550bcc78
550bcc78
550bcc78
550bcc78
550bcc78
550bcc78
550bcc78
550bcc78
550bcc78
550bcc78
550bcc78
550bcc78
550bcc78
550bcc78
550bcc78
550bcc78
550bcc78
550bcc78
550bcc78
550bcc78
550bcc78
550bcc78
550bcc78
550bcc78
550bcc78
550bcc78
550bcc78
550bcc78
550bcc78
550bcc78
550bcc78
550bcc78
550bcc78
550bcc78
550bcc78
550bcc78
550bcc78
550bcc78
550bcc78
550bcc78
550bcc78
550bcc78
550bcc78
550bcc78
550bcc78
550bcc78
550bcc78
550bcc78
550bcc78
550bcc78
550bcc78
550bcc78
550bcc78
550bcc78
550bcc78
550bcc78
550bcc78
550bcc78
550bcc78
550bcc78
550bcc78
550bcc78
550bcc78
550bcc78
550bcc78
550bcc78
550bcc78
550bcc78
550bcc78
550bcc78
550bcc78
550bcc78
550bcc78
550bcc78
550bcc78
550bcc78
550bcc78
550bcc78
550bcc78
550bcc78
550bcc78
550bcc78
550bcc78
550bcc78
550bcc78
550bcc78
550bcc78
550bcc78
550bcc78
550bcc78
550bcc78
550bcc78
550bcc78
550bcc78
550bcc78
550bcc78
550bcc78
550bcc78
550bcc78
550bcc78
550bcc78
550bcc78
550bcc78
550bcc78
550bcc78
550bcc78
550bcc78
550bcc78
550bcc78
550bcc78
550bcc78
550bcc78
550bcc78
550bcc78
550bcc78
550bcc78
550bcc78
550bcc78
550bcc78
550bcc78
550bcc78
550bcc78
550bcc78
550bcc78
550bcc78
550bcc78
550bcc78
550bcc78
550bcc78
550bcc78
550bcc78
550bcc78
550bcc78
550bcc78
550bcc78
550bcc78
550bcc78
550bcc78
550bcc78
550bcc78
550bcc78
550bcc78
550bcc78
550bcc78
550bcc78
550bcc78
550bcc78
550bcc78
550bcc78
550bcc78
550bcc78
550bcc78
550bcc78
550bcc78
550bcc78
550bcc78
550bcc78
550bcc78
550bcc78
550bcc78
550bcc78
550bcc78
550bcc78
550bcc78
550bcc78
550bcc78
550bcc78
550bcc78
550bcc78
550bcc78
550bcc78
550bcc78
550bcc78
550bcc78
550bcc78
550bcc78
550bcc78
550bcc78
550bcc78
550bcc78
550bcc78
550bcc78
550bcc78
550bcc78
550bcc78
550bcc78
550bcc78
550bcc78
550bcc78
550bcc78
550bcc78
550bcc78
550bcc78
550bcc78
550bcc78
550bcc78
550bcc78
550bcc78
550bcc78
550bcc78
550bcc78
550bcc78
550bcc78
550bcc78
550bcc78
550bcc78
550bcc78
550bcc78
550bcc78
550bcc78
550bcc78
550bcc78
550bcc78
550bcc78
550bcc78
550bcc78
550bcc78
550bcc78
550bcc78
550bcc78
550bcc78
550bcc78
550bcc78
550bcc78
550bcc78
550bcc78
550bcc78
550bcc78
550bcc78
550bcc78
550bcc78
550bcc78
550bcc78
550bcc78
550bcc78
550bcc78
550bcc78
550bcc78
550bcc78
550bcc78
550bcc78
550bcc78
550bcc78
550bcc78
550bcc78
550bcc78
550bcc78
550bcc78
550bcc78
550bcc78
550bcc78
550bcc78
550bcc78
550bcc78
550bcc78
550bcc78
550bcc78
550bcc78
550bcc78
550bcc78
550bcc78
550bcc78
550bcc78
550bcc78
550bcc78
550bcc78
550bcc78
550bcc78
550bcc78
550bcc78
550bcc78
550bcc78
550bcc78
550bcc78
550bcc78
550bcc78
550bcc78
550bcc78
550bcc78
550bcc78
550bcc78
550bcc78
550bcc78
550bcc78
550bcc78
550bcc78
550bcc78
550bcc78
550bcc78
550bcc78
550bcc78
550bcc78
550bcc78
550bcc78
550bcc78
550bcc78
550bcc78
550bcc78
550bcc78
550bcc78
550bcc78
550bcc78
550bcc78
550bcc78
550bcc78
550bcc78
550bcc78
550bcc78
550bcc78
550bcc78
550bcc78
550bcc78
550bcc78
550bcc78
550bcc78
550bcc78
550bcc78
550bcc78
550bcc78
550bcc78
550bcc78
550bcc78
550bcc78
550bcc78
550bcc78
550bcc78
550bcc78
550bcc78
550bcc78
550bcc78
550bcc78
550bcc78
550bcc78
550bcc78
550bcc78
550bcc78
550bcc78
550bcc78
550bcc78
550bcc78
550bcc78
550bcc78
550bcc78
550bcc78
550bcc78
550bcc78
550bcc78
550bcc78
550bcc78
550bcc78
550bcc78
550bcc78
550bcc78
550bcc78
550bcc78
550bcc78
550bcc78
550bcc78
550bcc78
550bcc78
550bcc78
550bcc78
550bcc78
550bcc78
550bcc78
550bcc78
550bcc78
550bcc78
550bcc78
550bcc78
550bcc78
550bcc78
550bcc78
550bcc78
550bcc78
550bcc78
550bcc78
550bcc78
550bcc78
550bcc78
550bcc78
550bcc78
550bcc78
550bcc78
550bcc78
550bcc78
550bcc78
550bcc78
550bcc78
550bcc78
550bcc78
550bcc78
550bcc78
550bcc78
550bcc78
550bcc78
550bcc78
550bcc78
550bcc78
550bcc78
550bcc78
550bcc78
550bcc78
550bcc78
550bcc78
550bcc78
550bcc78
550bcc78
550bcc78
550bcc78
550bcc78
550bcc78
550bcc78
550bcc78
550bcc78
550bcc78
550bcc78
550bcc78
550bcc78
550bcc78
550bcc78
550bcc78
550bcc78
550bcc78
550bcc78
550bcc78
550bcc78
550bcc78
550bcc78
550bcc78
550bcc78
550bcc78
550bcc78
550bcc78
550bcc78
550bcc78
550bcc78
550bcc78
550bcc78
550bcc78
550bcc78
550bcc78
550bcc78
550bcc78
550bcc78
550bcc78
550bcc78
550bcc78
550bcc78
550bcc78
550bcc78
550bcc78
550bcc78
550bcc78
550bcc78
550bcc78
550bcc78
550bcc78
550bcc78
550bcc78
550bcc78
550bcc78
550bcc78
550bcc78
550bcc78
550bcc78
550bcc78
550bcc78
550bcc78
550bcc78
550bcc78
550bcc78
550bcc78
550bcc78
550bcc78
550bcc78
550bcc78
550bcc78
550bcc78
550bcc78
550bcc78
550bcc78
550bcc78
550bcc78
550bcc78
550bcc78
550bcc78
550bcc78
550bcc78
550bcc78
550bcc78
550bcc78
550bcc78
550bcc78
550bcc78
550bcc78
550bcc78
550bcc78
550bcc78
550bcc78
550bcc78
550bcc78
550bcc78
550bcc78
550bcc78
550bcc78
550bcc78
550bcc78
550bcc78
550bcc78
550bcc78
550bcc78
550bcc78
550bcc78
550bcc78
550bcc78
550bcc78
550bcc78
550bcc78
550bcc78
550bcc78
550bcc78
550bcc78
550bcc78
550bcc78
550bcc78
550bcc78
550bcc78
550bcc78
550bcc78
550bcc78
550bcc78
550bcc78
550bcc78
550bcc78
550bcc78
550bcc78
550bcc78
550bcc78
550bcc78
550bcc78
550bcc78
550bcc78
550bcc78
550bcc78
550bcc78
550bcc78
550bcc78
550bcc78
550bcc78
550bcc78
550bcc78
550bcc78
550bcc78
550bcc78
550bcc78
550bcc78
550bcc78
550bcc78
550bcc78
550bcc78
550bcc78
550bcc78
550bcc78
550bcc78
550bcc78
550bcc78
550bcc78
550bcc78
550bcc78
550bcc78
550bcc78
550bcc78
550bcc78
550bcc78
550bcc78
550bcc78
550bcc78
550bcc78
550bcc78
550bcc78
550bcc78
550bcc78
550bcc78
550bcc78
550bcc78
550bcc78
550bcc78
550bcc78
550bcc78
550bcc78
550bcc78
550bcc78
550bcc78
550bcc78
550bcc78
550bcc78
550bcc78
550bcc78
550bcc78
550bcc78
550bcc78
550bcc78
550bcc78
550bcc78
550bcc78
550bcc78
550bcc78
550bcc78
550bcc78
550bcc78
550bcc78
550bcc78
550bcc78
550bcc78
550bcc78
550bcc78
550bcc78
550bcc78
550bcc78
550bcc78
550bcc78
550bcc78
550bcc78
550bcc78
550bcc78
550bcc78
550bcc78
550bcc78
550bcc78
550bcc78
550bcc78
550bcc78
550bcc78
550bcc78
550bcc78
550bcc78
550bcc78
550bcc78
550bcc78
550bcc78
550bcc78
550bcc78
550bcc78
550bcc78
550bcc78
550bcc78
550bcc78
550bcc78
550bcc78
550bcc78
550bcc78
550bcc78
550bcc78
550bcc78
550bcc78
550bcc78
550bcc78
550bcc78
550bcc78
550bcc78
550bcc78
550bcc78
550bcc78
550bcc78
550bcc78
550bcc78
550bcc78
550bcc78
550bcc78
550bcc78
550bcc78
550bcc78
550bcc78
550bcc78
550bcc78
550bcc78
550bcc78
550bcc78
550bcc78
550bcc78
550bcc78
550bcc78
550bcc78
550bcc78
550bcc78
550bcc78
550bcc78
550bcc78
550bcc78
550bcc78
550bcc78
550bcc78
550bcc78
550bcc78
550bcc78
550bcc78
550bcc78
550bcc78
550bcc78
550bcc78
550bcc78
550bcc78
550bcc78
550bcc78
550bcc78
550bcc78
550bcc78
550bcc78
550bcc78
550bcc78
550bcc78
550bcc78
550bcc78
550bcc78
550bcc78
550bcc78
550bcc78
550bcc78
550bcc78
550bcc78
550bcc78
550bcc78
550bcc78
550bcc78
550bcc78
550bcc78
550bcc78
550bcc78
550bcc78
550bcc78
550bcc78
550bcc78
550bcc78
550bcc78
550bcc78
550bcc78
550bcc78
550bcc78
550bcc78
550bcc78
550bcc78
550bcc78
550bcc78
550bcc78
550bcc78
550bcc78
550bcc78
550bcc78
550bcc78
550bcc78
550bcc78
550bcc78
550bcc78
550bcc78
550bcc78
550bcc78
550bcc78
550bcc78
550bcc78
550bcc78
550bcc78
550bcc78
550bcc78
550bcc78
550bcc78
550bcc78
550bcc78
550bcc78
550bcc78
550bcc78
550bcc78
550bcc78
550bcc78
550bcc78
550bcc78
550bcc78
550bcc78
550bcc78
550bcc78
550bcc78
550bcc78
550bcc78
550bcc78
550bcc78
550bcc78
550bcc78
550bcc78
550bcc78
550bcc78
550bcc78
550bcc78
550bcc78
550bcc78
550bcc78
550bcc78
550bcc78
550bcc78
550bcc78
550bcc78
550bcc78
550bcc78
550bcc78
550bcc78
550bcc78
550bcc78
550bcc78
550bcc78
550bcc78
550bcc78
550bcc78
550bcc78
550bcc78
550bcc78
550bcc78
550bcc78
550bcc78
550bcc78
550bcc78
550bcc78
550bcc78
550bcc78
550bcc78
550bcc78
550bcc78
550bcc78
550bcc78
550bcc78
550bcc78
550bcc78
550bcc78
550bcc78
550bcc78
550bcc78
550bcc78
550bcc78
550bcc78
550bcc78
550bcc78
550bcc78
550bcc78
550bcc78
550bcc78
550bcc78
550bcc78
550bcc78
550bcc78
550bcc78
550bcc78
550bcc78
550bcc78
550bcc78
550bcc78
550bcc78
550bcc78
550bcc78
550bcc78
550bcc78
550bcc78
550bcc78
550bcc78
550bcc78
550bcc78
550bcc78
550bcc78
550bcc78
550bcc78
550bcc78
550bcc78
550bcc78
550bcc78
550bcc78
550bcc78
550bcc78
550bcc78
550bcc78
550bcc78
550bcc78
550bcc78
550bcc78
550bcc78
550bcc78
550bcc78
550bcc78
550bcc78
550bcc78
550bcc78
550bcc78
550bcc78
550bcc78
550bcc78
550bcc78
550bcc78
550bcc78
550bcc78
550bcc78
550bcc78
550bcc78
550bcc78
550bcc78
550bcc78
550bcc78
550bcc78
550bcc78
550bcc78
550bcc78
550bcc78
550bcc78
550bcc78
550bcc78
550bcc78
550bcc78
550bcc78
550bcc78
550bcc78
550bcc78
550bcc78
550bcc78
550bcc78
550bcc78
550bcc78
550bcc78
550bcc78
550bcc78
550bcc78
550bcc78
550bcc78
550bcc78
550bcc78
550bcc78
550bcc78
550bcc78
550bcc78
550bcc78
550bcc78
550bcc78
550bcc78
550bcc78
550bcc78
550bcc78
550bcc78
550bcc78
550bcc78
550bcc78
550bcc78
550bcc78
550bcc78
550bcc78
550bcc78
550bcc78
550bcc78
550bcc78
550bcc78
550bcc78
550bcc78
550bcc78
550bcc78
550bcc78
550bcc78
550bcc78
550bcc78
550bcc78
550bcc78
550bcc78
550bcc78
550bcc78
550bcc78
550bcc78
550bcc78
550bcc78
550bcc78
550bcc78
550bcc78
550bcc78
550bcc78
550bcc78
550bcc78
550bcc78
550bcc78
550bcc78
550bcc78
550bcc78
550bcc78
550bcc78
550bcc78
550bcc78
550bcc78
550bcc78
550bcc78
550bcc78
550bcc78
550bcc78
550bcc78
550bcc78
550bcc78
550bcc78
550bcc78
550bcc78
550bcc78
550bcc78
550bcc78
550bcc78
550bcc78
550bcc78
550bcc78
550bcc78
550bcc78
550bcc78
550bcc78
550bcc78
550bcc78
550bcc78
550bcc78
550bcc78
550bcc78
550bcc78
550bcc78
550bcc78
550bcc78
550bcc78
550bcc78
550bcc78
550bcc78
550bcc78
550bcc78
550bcc78
550bcc78
550bcc78
550bcc78
550bcc78
550bcc78
550bcc78
550bcc78
550bcc78
550bcc78
550bcc78
550bcc78
550bcc78
550bcc78
550bcc78
550bcc78
550bcc78
550bcc78
550bcc78
550bcc78
550bcc78
550bcc78
550bcc78
550bcc78
550bcc78
550bcc78
550bcc78
550bcc78
550bcc78
550bcc78
550bcc78
550bcc78
550bcc78
550bcc78
550bcc78
550bcc78
550bcc78
550bcc78
550bcc78
550bcc78
550bcc78
550bcc78
550bcc78
550bcc78
550bcc78
550bcc78
550bcc78
550bcc78
550bcc78
550bcc78
550bcc78
550bcc78
550bcc78
550bcc78
550bcc78
550bcc78
550bcc78
550bcc78
550bcc78
550bcc78
550bcc78
550bcc78
550bcc78
550bcc78
550bcc78
550bcc78
550bcc78
550bcc78
550bcc78
550bcc78
550bcc78
550bcc78
550bcc78
550bcc78
550bcc78
550bcc78
550bcc78
550bcc78
550bcc78
550bcc78
550bcc78
550bcc78
550bcc78
550bcc78
550bcc78
550bcc78
550bcc78
550bcc78
550bcc78
550bcc78
550bcc78
550bcc78
550bcc78
550bcc78
550bcc78
550bcc78
550bcc78
550bcc78
550bcc78
550bcc78
550bcc78
550bcc78
550bcc78
550bcc78
550bcc78
550bcc78
550bcc78
550bcc78
550bcc78
550bcc78
550bcc78
550bcc78
550bcc78
550bcc78
550bcc78
550bcc78
550bcc78
550bcc78
550bcc78
550bcc78
550bcc78
550bcc78
550bcc78
550bcc78
550bcc78
550bcc78
550bcc78
550bcc78
550bcc78
550bcc78
550bcc78
550bcc78
550bcc78
550bcc78
550bcc78
550bcc78
550bcc78
550bcc78
550bcc78
550bcc78
550bcc78
550bcc78
550bcc78
550bcc78
550bcc78
550bcc78
550bcc78
550bcc78
550bcc78
550bcc78
550bcc78
550bcc78
550bcc78
550bcc78
550bcc78
550bcc78
550bcc78
550bcc78
550bcc78
550bcc78
550bcc78
550bcc78
550bcc78
550bcc78
550bcc78
550bcc78
550bcc78
550bcc78
550bcc78
550bcc78
550bcc78
550bcc78
550bcc78
550bcc78
550bcc78
550bcc78
550bcc78
550bcc78
550bcc78
550bcc78
550bcc78
550bcc78
550bcc78
550bcc78
550bcc78
550bcc78
550bcc78
550bcc78
550bcc78
550bcc78
550bcc78
550bcc78
550bcc78
550bcc78
550bcc78
550bcc78
550bcc78
550bcc78
550bcc78
550bcc78
550bcc78
550bcc78
550bcc78
550bcc78
550bcc78
550bcc78
550bcc78
550bcc78
550bcc78
550bcc78
550bcc78
550bcc78
550bcc78
550bcc78
550bcc78
550bcc78
550bcc78
550bcc78
550bcc78
550bcc78
550bcc78
550bcc78
550bcc78
550bcc78
550bcc78
550bcc78
550bcc78
550bcc78
550bcc78
550bcc78
550bcc78
550bcc78
550bcc78
550bcc78
550bcc78
550bcc78
550bcc78
550bcc78
550bcc78
550bcc78
550bcc78
550bcc78
550bcc78
550bcc78
550bcc78
550bcc78
550bcc78
550bcc78
550bcc78
550bcc78
550bcc78
550bcc78
550bcc78
550bcc78
550bcc78
550bcc78
550bcc78
550bcc78
550bcc78
550bcc78
550bcc78
550bcc78
550bcc78
550bcc78
550bcc78
550bcc78
550bcc78
550bcc78
550bcc78
550bcc78
550bcc78
550bcc78
550bcc78
550bcc78
550bcc78
550bcc78
550bcc78
550bcc78
550bcc78
550bcc78
550bcc78
550bcc78
550bcc78
550bcc78
550bcc78
550bcc78
550bcc78
550bcc78
550bcc78
550bcc78
550bcc78
550bcc78
550bcc78
550bcc78
550bcc78
550bcc78
550bcc78
550bcc78
550bcc78
550bcc78
550bcc78
550bcc78
550bcc78
550bcc78
550bcc78
550bcc78
550bcc78
550bcc78
550bcc78
550bcc78
550bcc78
550bcc78
550bcc78
550bcc78
550bcc78
550bcc78
550bcc78
550bcc78
550bcc78
550bcc78
550bcc78
550bcc78
550bcc78
550bcc78
550bcc78
550bcc78
550bcc78
550bcc78
550bcc78
550bcc78
550bcc78
550bcc78
550bcc78
550bcc78
550bcc78
550bcc78
550bcc78
550bcc78
550bcc78
550bcc78
550bcc78
550bcc78
550bcc78
550bcc78
550bcc78
550bcc78
550bcc78
550bcc78
550bcc78
550bcc78
550bcc78
550bcc78
550bcc78
550bcc78
550bcc78
550bcc78
550bcc78
550bcc78
550bcc78
550bcc78
550bcc78
550bcc78
550bcc78
550bcc78
550bcc78
550bcc78
550bcc78
550bcc78
550bcc78
550bcc78
550bcc78
550bcc78
550bcc78
550bcc78
550bcc78
550bcc78
550bcc78
550bcc78
550bcc78
550bcc78
550bcc78
550bcc78
550bcc78
550bcc78
550bcc78
550bcc78
550bcc78
550bcc78
550bcc78
550bcc78
550bcc78
550bcc78
550bcc78
550bcc78
550bcc78
550bcc78
550bcc78
550bcc78
550bcc78
550bcc78
550bcc78
550bcc78
550bcc78
550bcc78
550bcc78
550bcc78
550bcc78
550bcc78
550bcc78
550bcc78
550bccc0
Block 339:
  0x0000000000400cef  b8 00 00 00 00       mov    $0x00000000 -> %eax 
  0x0000000000400cf4  c9                   leave  %rbp %rsp (%rbp) -> %rsp %rbp 
  0x0000000000400cf5  c3                   ret    %rsp (%rsp) -> %rsp 

401e68
Block 340:
  0x0000000000401e68  b8 00 00 00 00       mov    $0x00000000 -> %eax 
  0x0000000000401e6d  e8 0e 03 00 00       call   $0x0000000000402180 %rsp -> %rsp 0xfffffff8(%rsp) 
  0x0000000000402180  55                   push   %rbp %rsp -> %rsp 0xfffffff8(%rsp) 
  0x0000000000402181  48 89 e5             mov    %rsp -> %rbp 
  0x0000000000402184  b8 00 00 00 00       mov    $0x00000000 -> %eax 
  0x0000000000402189  5d                   pop    %rsp (%rsp) -> %rbp %rsp 
  0x000000000040218a  c3                   ret    %rsp (%rsp) -> %rsp 

401e72
Block 341:
  0x0000000000401e72  8b 05 50 72 21 00    mov    <rel> 0x00000000006190c8 -> %eax 
  0x0000000000401e78  83 f8 02             cmp    %eax $0x00000002 
  0x0000000000401e7b  7e 0a                jle    $0x0000000000401e87 

550bd035
Block 342:
  0x0000000000401e7d  bf 35 65 41 00       mov    $0x00416535 -> %edi 
  0x0000000000401e82  e8 29 ea ff ff       call   $0x00000000004008b0 %rsp -> %rsp 0xfffffff8(%rsp) 
  0x00000000004008b0  ff 25 72 87 21 00    jmp    <rel> 0x0000000000619028 

7ffff7666d30
550bb454
550bb4a4
Block 343:
  0x00007ffff7681ca1  48 83 e0 f0          and    $0xfffffffffffffff0 %rax -> %rax 
  0x00007ffff7681ca5  66 44 0f 74 48 10    data16 pcmpeqb 0x10(%rax) %xmm9 -> %xmm9 
  0x00007ffff7681cab  66 44 0f 74 50 20    data16 pcmpeqb 0x20(%rax) %xmm10 -> %xmm10 
  0x00007ffff7681cb1  66 44 0f 74 58 30    data16 pcmpeqb 0x30(%rax) %xmm11 -> %xmm11 
  0x00007ffff7681cb7  66 41 0f d7 d1       data16 pmovmskb %xmm9 -> %edx 
  0x00007ffff7681cbc  66 45 0f d7 c2       data16 pmovmskb %xmm10 -> %r8d 
  0x00007ffff7681cc1  66 41 0f d7 cb       data16 pmovmskb %xmm11 -> %ecx 
  0x00007ffff7681cc6  48 c1 e2 10          shl    $0x0000000000000010 %rdx -> %rdx 
  0x00007ffff7681cca  48 c1 e1 10          shl    $0x0000000000000010 %rcx -> %rcx 
  0x00007ffff7681cce  4c 09 c1             or     %r8 %rcx -> %rcx 
  0x00007ffff7681cd1  48 c1 e1 20          shl    $0x0000000000000020 %rcx -> %rcx 
  0x00007ffff7681cd5  48 09 ca             or     %rcx %rdx -> %rdx 
  0x00007ffff7681cd8  48 89 f9             mov    %rdi -> %rcx 
  0x00007ffff7681cdb  48 31 c1             xor    %rax %rcx -> %rcx 
  0x00007ffff7681cde  48 83 e0 c0          and    $0xffffffffffffffc0 %rax -> %rax 
  0x00007ffff7681ce2  48 d3 fa             sar    %cl %rdx -> %rdx 
  0x00007ffff7681ce5  48 85 d2             test   %rdx %rdx 
  0x00007ffff7681ce8  74 76                jz     $0x00007ffff7681d60 

550bd07c
Block 344:
  0x00007ffff7681cea  48 0f bc c2          bsf    %rdx -> %rax 
  0x00007ffff7681cee  c3                   ret    %rsp (%rsp) -> %rsp 

7ffff7666d3c
550bb4e4
550bb514
550bb544
550bb580
550bb59c
Block 345:
  0x00007ffff7666e70  83 f8 ff             cmp    %eax $0xffffffff 
  0x00007ffff7666e73  0f 84 5a ff ff ff    jz     $0x00007ffff7666dd3 

550bd0f6
Block 346:
  0x00007ffff7666dd3  48 8b 87 d8 00 00 00 mov    0x000000d8(%rdi) -> %rax 
  0x00007ffff7666dda  48 89 da             mov    %rbx -> %rdx 
  0x00007ffff7666ddd  4c 89 e6             mov    %r12 -> %rsi 
  0x00007ffff7666de0  ff 50 38             call   0x38(%rax) %rsp -> %rsp 0xfffffff8(%rsp) 

7ffff7670340
550bb61c
550bb648
550bb673
Block 347:
  0x00007ffff767037d  48 29 f9             sub    %rdi %rcx -> %rcx 
  0x00007ffff7670380  45 31 f6             xor    %r14d %r14d -> %r14d 
  0x00007ffff7670383  48 85 c9             test   %rcx %rcx 
  0x00007ffff7670386  49 89 dc             mov    %rbx -> %r12 
  0x00007ffff7670389  74 25                jz     $0x00007ffff76703b0 

550bd144
Block 348:
  0x00007ffff767038b  48 39 d9             cmp    %rcx %rbx 
  0x00007ffff767038e  4c 89 ee             mov    %r13 -> %rsi 
  0x00007ffff7670391  48 0f 47 cb          cmovnbe %rbx %rcx -> %rcx 
  0x00007ffff7670395  48 89 ca             mov    %rcx -> %rdx 
  0x00007ffff7670398  49 89 cc             mov    %rcx -> %r12 
  0x00007ffff767039b  e8 50 55 01 00       call   $0x00007ffff76858f0 %rsp -> %rsp 0xfffffff8(%rsp) 
  0x00007ffff76858f0  48 83 fa 20          cmp    %rdx $0x0000000000000020 
  0x00007ffff76858f4  73 7a                jnb    $0x00007ffff7685970 

550bd164
Block 349:
  0x00007ffff76858f6  f6 c2 01             test   %dl $0x01 
  0x00007ffff76858f9  74 0b                jz     $0x00007ffff7685906 

550bd198
Block 350:
  0x00007ffff7685906  f6 c2 02             test   %dl $0x02 
  0x00007ffff7685909  74 0e                jz     $0x00007ffff7685919 

550bd1b6
Block 351:
  0x00007ffff768590b  0f b7 0e             movzx  (%rsi) -> %ecx 
  0x00007ffff768590e  66 89 0f             data16 mov    %cx -> (%rdi) 
  0x00007ffff7685911  48 83 c6 02          add    $0x0000000000000002 %rsi -> %rsi 
  0x00007ffff7685915  48 83 c7 02          add    $0x0000000000000002 %rdi -> %rdi 
  0x00007ffff7685919  f6 c2 04             test   %dl $0x04 
  0x00007ffff768591c  74 0c                jz     $0x00007ffff768592a 

550bd1d0
Block 352:
  0x00007ffff768592a  f6 c2 08             test   %dl $0x08 
  0x00007ffff768592d  74 11                jz     $0x00007ffff7685940 

550bd1f6
Block 353:
  0x00007ffff7685940  81 e2 f0 00 00 00    and    $0x000000f0 %edx -> %edx 
  0x00007ffff7685946  74 23                jz     $0x00007ffff768596b 

550bd210
Block 354:
  0x00007ffff7685948  0f 1f 84 00 00 00 00 nop    0x00000000(%rax,%rax,1) 
                      00
  0x00007ffff7685950  48 8b 0e             mov    (%rsi) -> %rcx 
  0x00007ffff7685953  4c 8b 46 08          mov    0x08(%rsi) -> %r8 
  0x00007ffff7685957  48 89 0f             mov    %rcx -> (%rdi) 
  0x00007ffff768595a  4c 89 47 08          mov    %r8 -> 0x08(%rdi) 
  0x00007ffff768595e  83 ea 10             sub    $0x00000010 %edx -> %edx 
  0x00007ffff7685961  48 8d 76 10          lea    0x10(%rsi) -> %rsi 
  0x00007ffff7685965  48 8d 7f 10          lea    0x10(%rdi) -> %rdi 
  0x00007ffff7685969  75 e5                jnz    $0x00007ffff7685950 

550bd22c
Block 355:
  0x00007ffff768596b  48 89 f8             mov    %rdi -> %rax 
  0x00007ffff768596e  c3                   ret    %rsp (%rsp) -> %rsp 

7ffff76703a0
Block 356:
  0x00007ffff76703a0  48 89 45 28          mov    %rax -> 0x28(%rbp) 
  0x00007ffff76703a4  48 89 d8             mov    %rbx -> %rax 
  0x00007ffff76703a7  4d 01 e5             add    %r12 %r13 -> %r13 
  0x00007ffff76703aa  4c 29 e0             sub    %r12 %rax -> %rax 
  0x00007ffff76703ad  49 89 c4             mov    %rax -> %r12 
  0x00007ffff76703b0  4d 01 e6             add    %r12 %r14 -> %r14 
  0x00007ffff76703b3  75 26                jnz    $0x00007ffff76703db 

550bd27c
Block 357:
  0x00007ffff76703b5  48 89 d8             mov    %rbx -> %rax 
  0x00007ffff76703b8  4c 29 e0             sub    %r12 %rax -> %rax 
  0x00007ffff76703bb  48 83 c4 08          add    $0x0000000000000008 %rsp -> %rsp 
  0x00007ffff76703bf  5b                   pop    %rsp (%rsp) -> %rbx %rsp 
  0x00007ffff76703c0  5d                   pop    %rsp (%rsp) -> %rbp %rsp 
  0x00007ffff76703c1  41 5c                pop    %rsp (%rsp) -> %r12 %rsp 
  0x00007ffff76703c3  41 5d                pop    %rsp (%rsp) -> %r13 %rsp 
  0x00007ffff76703c5  41 5e                pop    %rsp (%rsp) -> %r14 %rsp 
  0x00007ffff76703c7  41 5f                pop    %rsp (%rsp) -> %r15 %rsp 
  0x00007ffff76703c9  c3                   ret    %rsp (%rsp) -> %rsp 

7ffff7666de3
550bbd18
550bbd34
550bbd5c
550bbd98
550bbdb8
550bbdf8
401e87
Block 358:
  0x0000000000401e87  8b 45 f4             mov    0xfffffff4(%rbp) -> %eax 
  0x0000000000401e8a  c1 e0 14             shl    $0x00000014 %eax -> %eax 
  0x0000000000401e8d  89 c2                mov    %eax -> %edx 
  0x0000000000401e8f  48 8b 45 e8          mov    0xffffffe8(%rbp) -> %rax 
  0x0000000000401e93  48 89 c6             mov    %rax -> %rsi 
  0x0000000000401e96  bf 00 00 00 00       mov    $0x00000000 -> %edi 
  0x0000000000401e9b  e8 ee ef ff ff       call   $0x0000000000400e8e %rsp -> %rsp 0xfffffff8(%rsp) 
  0x0000000000400e8e  55                   push   %rbp %rsp -> %rsp 0xfffffff8(%rsp) 
  0x0000000000400e8f  48 89 e5             mov    %rsp -> %rbp 
  0x0000000000400e92  48 83 ec 20          sub    $0x0000000000000020 %rsp -> %rsp 
  0x0000000000400e96  89 7d ec             mov    %edi -> 0xffffffec(%rbp) 
  0x0000000000400e99  48 89 75 e0          mov    %rsi -> 0xffffffe0(%rbp) 
  0x0000000000400e9d  89 55 e8             mov    %edx -> 0xffffffe8(%rbp) 
  0x0000000000400ea0  48 8b 45 e0          mov    0xffffffe0(%rbp) -> %rax 
  0x0000000000400ea4  be 00 00 00 00       mov    $0x00000000 -> %esi 
  0x0000000000400ea9  48 89 c7             mov    %rax -> %rdi 
  0x0000000000400eac  b8 00 00 00 00       mov    $0x00000000 -> %eax 
  0x0000000000400eb1  e8 ba fa ff ff       call   $0x0000000000400970 %rsp -> %rsp 0xfffffff8(%rsp) 
  0x0000000000400970  ff 25 12 87 21 00    jmp    <rel> 0x0000000000619088 

400976
Block 359:
  0x0000000000400976  68 0e 00 00 00       push   $0x000000000000000e %rsp -> %rsp 0xfffffff8(%rsp) 
  0x000000000040097b  e9 00 ff ff ff       jmp    $0x0000000000400880 
  0x0000000000400880  ff 35 82 87 21 00    push   <rel> 0x0000000000619008 %rsp -> %rsp 0xfffffff8(%rsp) 
  0x0000000000400886  ff 25 84 87 21 00    jmp    <rel> 0x0000000000619010 

7ffff7df12e0
550b9219
550b92d4
550b92f4
550b9350
550b9408
550b9440
550b9440
550b9440
550b946c
550b94dc
550b9504
550b9600
550b961c
550b9638
550b9671
550b968c
550b96d4
550b971c
550b9738
550b975c
7ffff7debf05
550b97cc
550b97e8
550b9804
7ffff7debf34
550b9830
550b984c
7ffff7de4da6
550b988c
550b98a8
550b98c8
550b9600
550b961c
550b9638
550b9671
550b968c
550b96d4
550b971c
550b9738
550b975c
7ffff7debf05
550b97cc
550b97e8
550b9804
7ffff7debf34
550b9830
550b984c
7ffff7de4da6
550b988c
550b98a8
550b98c8
550b9600
550b961c
550b9638
550b9671
550b968c
550b96d4
550b971c
550b9738
550b975c
7ffff7debf05
550b97cc
550b97e8
550b9804
7ffff7debf34
550b9830
550b984c
7ffff7de4da6
550b988c
550b98a8
550b98c8
550b9600
550b961c
550b9638
550b9671
550b968c
550b96d4
550b98e8
550b9914
550b9980
550b99fc
550b9a18
550b9a3c
550b9a5d
550b9a8c
550b9abc
550b9ad8
550b9abc
550b9ad8
550b9abc
550b9ad8
550b9abc
550b9ad8
550b9abc
7ffff7de4b4b
550b9b10
550b9b2e
550b9b4c
550b9b68
550b9ba6
550b9abc
550b9ad8
550b9abc
550b9ad8
550b9abc
550b9ad8
550b9abc
550b9ad8
550b9abc
550b9ad8
550b9abc
550b9ad8
550b9abc
550b9ad8
550b9abc
550b9ad8
550b9abc
550b9ad8
550b9abc
550b9ad8
550b9abc
550b9ad8
550b9abc
7ffff7de4bd4
550b9bd4
7ffff7de531f
550b9c14
550b9c30
550ba71c
7ffff7de57f8
550b9cec
550b9d08
550b9d24
550b9d40
550b9d5f
550b9d8c
550b9da8
7ffff7dea36c
550b9e00
550b9e2c
550b9e54
550b9e98
550b9eb4
550b9edc
7ffff7df1330
7ffff79c3930
Block 360:
  0x00007ffff79c3930  83 3d 89 ba 20 00 00 cmp    <rel> 0x00007ffff7bcf3c0 $0x00000000 
  0x00007ffff79c3937  75 10                jnz    $0x00007ffff79c3949 

550bd35b
Block 361:
  0x00007ffff79c3939  b8 02 00 00 00       mov    $0x00000002 -> %eax 
  0x00007ffff79c393e  0f 05                syscall -> %rcx 
  0x00007ffff79c3940  48 3d 01 f0 ff ff    cmp    %rax $0xfffffffffffff001 
  0x00007ffff79c3946  73 31                jnb    $0x00007ffff79c3979 

55139038
Block 362:
  0x00007ffff79c3948  c3                   ret    %rsp (%rsp) -> %rsp 

400eb6
Block 363:
  0x0000000000400eb6  89 45 f4             mov    %eax -> 0xfffffff4(%rbp) 
  0x0000000000400eb9  83 7d f4 00          cmp    0xfffffff4(%rbp) $0x00000000 
  0x0000000000400ebd  79 38                jns    $0x0000000000400ef7 

550bd3b2
Block 364:
  0x0000000000400ef7  8b 45 ec             mov    0xffffffec(%rbp) -> %eax 
  0x0000000000400efa  48 63 d0             movsxd %eax -> %rdx 
  0x0000000000400efd  48 89 d0             mov    %rdx -> %rax 
  0x0000000000400f00  48 01 c0             add    %rax %rax -> %rax 
  0x0000000000400f03  48 01 d0             add    %rdx %rax -> %rax 
  0x0000000000400f06  48 c1 e0 03          shl    $0x0000000000000003 %rax -> %rax 
  0x0000000000400f0a  48 05 40 9e 61 00    add    $0x0000000000619e40 %rax -> %rax 
  0x0000000000400f10  c7 40 04 00 00 00 00 mov    $0x00000000 -> 0x04(%rax) 
  0x0000000000400f17  8b 45 ec             mov    0xffffffec(%rbp) -> %eax 
  0x0000000000400f1a  48 63 d0             movsxd %eax -> %rdx 
  0x0000000000400f1d  48 89 d0             mov    %rdx -> %rax 
  0x0000000000400f20  48 01 c0             add    %rax %rax -> %rax 
  0x0000000000400f23  48 01 d0             add    %rdx %rax -> %rax 
  0x0000000000400f26  48 c1 e0 03          shl    $0x0000000000000003 %rax -> %rax 
  0x0000000000400f2a  48 05 40 9e 61 00    add    $0x0000000000619e40 %rax -> %rax 
  0x0000000000400f30  8b 48 04             mov    0x04(%rax) -> %ecx 
  0x0000000000400f33  8b 45 ec             mov    0xffffffec(%rbp) -> %eax 
  0x0000000000400f36  48 63 d0             movsxd %eax -> %rdx 
  0x0000000000400f39  48 89 d0             mov    %rdx -> %rax 
  0x0000000000400f3c  48 01 c0             add    %rax %rax -> %rax 
  0x0000000000400f3f  48 01 d0             add    %rdx %rax -> %rax 
  0x0000000000400f42  48 c1 e0 03          shl    $0x0000000000000003 %rax -> %rax 
  0x0000000000400f46  48 05 40 9e 61 00    add    $0x0000000000619e40 %rax -> %rax 
  0x0000000000400f4c  89 48 08             mov    %ecx -> 0x08(%rax) 
  0x0000000000400f4f  c7 45 fc 00 00 00 00 mov    $0x00000000 -> 0xfffffffc(%rbp) 
  0x0000000000400f56  e9 c7 00 00 00       jmp    $0x0000000000401022 
  0x0000000000401022  8b 45 fc             mov    0xfffffffc(%rbp) -> %eax 
  0x0000000000401025  3b 45 e8             cmp    %eax 0xffffffe8(%rbp) 
  0x0000000000401028  0f 8c 2d ff ff ff    jl     $0x0000000000400f5b 

550bd3cc
Block 365:
  0x0000000000400f5b  8b 45 ec             mov    0xffffffec(%rbp) -> %eax 
  0x0000000000400f5e  48 63 d0             movsxd %eax -> %rdx 
  0x0000000000400f61  48 89 d0             mov    %rdx -> %rax 
  0x0000000000400f64  48 01 c0             add    %rax %rax -> %rax 
  0x0000000000400f67  48 01 d0             add    %rdx %rax -> %rax 
  0x0000000000400f6a  48 c1 e0 03          shl    $0x0000000000000003 %rax -> %rax 
  0x0000000000400f6e  48 05 50 9e 61 00    add    $0x0000000000619e50 %rax -> %rax 
  0x0000000000400f74  48 8b 10             mov    (%rax) -> %rdx 
  0x0000000000400f77  8b 45 fc             mov    0xfffffffc(%rbp) -> %eax 
  0x0000000000400f7a  48 98                cwde   %ax -> %rax 
  0x0000000000400f7c  48 8d 0c 02          lea    (%rdx,%rax,1) -> %rcx 
  0x0000000000400f80  8b 45 f4             mov    0xfffffff4(%rbp) -> %eax 
  0x0000000000400f83  ba 00 00 02 00       mov    $0x00020000 -> %edx 
  0x0000000000400f88  48 89 ce             mov    %rcx -> %rsi 
  0x0000000000400f8b  89 c7                mov    %eax -> %edi 
  0x0000000000400f8d  e8 7e f9 ff ff       call   $0x0000000000400910 %rsp -> %rsp 0xfffffff8(%rsp) 
  0x0000000000400910  ff 25 42 87 21 00    jmp    <rel> 0x0000000000619058 

400916
Block 366:
  0x0000000000400916  68 08 00 00 00       push   $0x0000000000000008 %rsp -> %rsp 0xfffffff8(%rsp) 
  0x000000000040091b  e9 60 ff ff ff       jmp    $0x0000000000400880 
  0x0000000000400880  ff 35 82 87 21 00    push   <rel> 0x0000000000619008 %rsp -> %rsp 0xfffffff8(%rsp) 
  0x0000000000400886  ff 25 84 87 21 00    jmp    <rel> 0x0000000000619010 

7ffff7df12e0
550b9219
550b92d4
550b92f4
550b9350
550b9408
550b9440
550b9440
550b9440
550b946c
550b94dc
550b9504
550b9600
550b961c
550b9638
550b9671
550b968c
550b96d4
550b971c
550b9738
550b975c
7ffff7debf05
550b97cc
550b97e8
550b9804
7ffff7debf34
550b9830
550b984c
7ffff7de4da6
550b988c
550b98a8
550b98c8
550b9600
550b961c
550b9638
550b9671
550b968c
550b96d4
550b971c
550b9738
550b975c
7ffff7debf05
550b97cc
550b97e8
550b9804
7ffff7debf34
550b9830
550b984c
7ffff7de4da6
550b988c
550b98a8
550b98c8
550b9600
550b961c
550b9638
550b9671
550b968c
550b96d4
550b971c
550b9738
550b975c
7ffff7debf05
550b97cc
550b97e8
550b9804
7ffff7debf34
550b9830
550b984c
7ffff7de4da6
550b988c
550b98a8
550b98c8
550b9600
550b961c
550b9638
550b9671
550b968c
550b96d4
550b98e8
550b9914
550ba6e0
550ba6fc
550b9980
550b99fc
550b9a18
550b9a3c
550b9a5d
550b9a8c
550b9abc
550b9ad8
550b9abc
550b9ad8
550b9abc
550b9ad8
550b9abc
550b9ad8
550b9abc
7ffff7de4b4b
550b9b10
550b9b2e
550b9b4c
550b9b68
550b9ba6
550b9abc
550b9ad8
550b9abc
550b9ad8
550b9abc
550b9ad8
550b9abc
550b9ad8
550b9abc
550b9ad8
550b9abc
550b9ad8
550b9abc
550b9ad8
550b9abc
550b9ad8
550b9abc
550b9ad8
550b9abc
550b9ad8
550b9abc
550b9ad8
550b9abc
7ffff7de4bd4
550b9bd4
7ffff7de531f
550b9c14
550b9c30
550ba71c
7ffff7de57f8
550b9cec
550b9d08
550b9d24
550b9d40
550b9d5f
550b9d8c
550b9da8
7ffff7dea36c
550b9e00
550b9e2c
550b9e54
550b9e98
550b9eb4
550b9edc
7ffff7df1330
7ffff79c31a0
Block 367:
  0x00007ffff79c31a0  83 3d 19 c2 20 00 00 cmp    <rel> 0x00007ffff7bcf3c0 $0x00000000 
  0x00007ffff79c31a7  75 10                jnz    $0x00007ffff79c31b9 

550bd4c0
Block 368:
  0x00007ffff79c31a9  b8 00 00 00 00       mov    $0x00000000 -> %eax 
  0x00007ffff79c31ae  0f 05                syscall -> %rcx 
  0x00007ffff79c31b0  48 3d 01 f0 ff ff    cmp    %rax $0xfffffffffffff001 
  0x00007ffff79c31b6  73 31                jnb    $0x00007ffff79c31e9 

55139060
Block 369:
  0x00007ffff79c31b8  c3                   ret    %rsp (%rsp) -> %rsp 

400f92
Block 370:
  0x0000000000400f92  89 45 f0             mov    %eax -> 0xfffffff0(%rbp) 
  0x0000000000400f95  83 7d f0 00          cmp    0xfffffff0(%rbp) $0x00000000 
  0x0000000000400f99  75 05                jnz    $0x0000000000400fa0 

550bd514
Block 371:
  0x0000000000400fa0  83 7d f0 00          cmp    0xfffffff0(%rbp) $0x00000000 
  0x0000000000400fa4  79 38                jns    $0x0000000000400fde 

550bd530
Block 372:
  0x0000000000400fde  8b 45 ec             mov    0xffffffec(%rbp) -> %eax 
  0x0000000000400fe1  48 63 d0             movsxd %eax -> %rdx 
  0x0000000000400fe4  48 89 d0             mov    %rdx -> %rax 
  0x0000000000400fe7  48 01 c0             add    %rax %rax -> %rax 
  0x0000000000400fea  48 01 d0             add    %rdx %rax -> %rax 
  0x0000000000400fed  48 c1 e0 03          shl    $0x0000000000000003 %rax -> %rax 
  0x0000000000400ff1  48 05 40 9e 61 00    add    $0x0000000000619e40 %rax -> %rax 
  0x0000000000400ff7  8b 50 04             mov    0x04(%rax) -> %edx 
  0x0000000000400ffa  8b 45 f0             mov    0xfffffff0(%rbp) -> %eax 
  0x0000000000400ffd  8d 0c 02             lea    (%rdx,%rax,1) -> %ecx 
  0x0000000000401000  8b 45 ec             mov    0xffffffec(%rbp) -> %eax 
  0x0000000000401003  48 63 d0             movsxd %eax -> %rdx 
  0x0000000000401006  48 89 d0             mov    %rdx -> %rax 
  0x0000000000401009  48 01 c0             add    %rax %rax -> %rax 
  0x000000000040100c  48 01 d0             add    %rdx %rax -> %rax 
  0x000000000040100f  48 c1 e0 03          shl    $0x0000000000000003 %rax -> %rax 
  0x0000000000401013  48 05 40 9e 61 00    add    $0x0000000000619e40 %rax -> %rax 
  0x0000000000401019  89 48 04             mov    %ecx -> 0x04(%rax) 
  0x000000000040101c  8b 45 f0             mov    0xfffffff0(%rbp) -> %eax 
  0x000000000040101f  01 45 fc             add    %eax 0xfffffffc(%rbp) -> 0xfffffffc(%rbp) 
  0x0000000000401022  8b 45 fc             mov    0xfffffffc(%rbp) -> %eax 
  0x0000000000401025  3b 45 e8             cmp    %eax 0xffffffe8(%rbp) 
  0x0000000000401028  0f 8c 2d ff ff ff    jl     $0x0000000000400f5b 

550bd54c
7ffff79c31a0
550bd4c0
55139060
400f92
550bd514
550bd530
550bd54c
7ffff79c31a0
550bd4c0
55139060
400f92
550bd514
550bd530
550bd54c
7ffff79c31a0
550bd4c0
55139060
400f92
550bd514
550bd530
550bd54c
7ffff79c31a0
550bd4c0
55139060
400f92
550bd514
550bd530
550bd54c
7ffff79c31a0
550bd4c0
55139060
400f92
550bd514
550bd530
550bd54c
7ffff79c31a0
550bd4c0
55139060
400f92
550bd514
550bd530
550bd54c
7ffff79c31a0
550bd4c0
55139060
400f92
550bd514
550bd530
550bd54c
7ffff79c31a0
550bd4c0
55139060
400f92
550bd514
550bd530
550bd54c
7ffff79c31a0
550bd4c0
55139060
400f92
550bd514
550bd530
550bd54c
7ffff79c31a0
550bd4c0
55139060
400f92
550bd514
550bd530
550bd54c
7ffff79c31a0
550bd4c0
55139060
400f92
550bd514
550bd530
550bd54c
7ffff79c31a0
550bd4c0
55139060
400f92
550bd514
550bd530
550bd54c
7ffff79c31a0
550bd4c0
55139060
400f92
550bd514
550bd530
550bd54c
7ffff79c31a0
550bd4c0
55139060
400f92
550bd514
550bd530
550bd54c
7ffff79c31a0
550bd4c0
55139060
400f92
550bd514
550bd530
550bd54c
7ffff79c31a0
550bd4c0
55139060
400f92
550bd514
550bd530
550bd54c
7ffff79c31a0
550bd4c0
55139060
400f92
550bd514
550bd530
550bd54c
7ffff79c31a0
550bd4c0
55139060
400f92
550bd514
550bd530
550bd54c
7ffff79c31a0
550bd4c0
55139060
400f92
550bd514
550bd530
550bd54c
7ffff79c31a0
550bd4c0
55139060
400f92
550bd514
550bd530
550bd54c
7ffff79c31a0
550bd4c0
55139060
400f92
550bd514
550bd530
550bd54c
7ffff79c31a0
550bd4c0
55139060
400f92
550bd514
550bd530
550bd54c
7ffff79c31a0
550bd4c0
55139060
400f92
550bd514
550bd530
550bd54c
7ffff79c31a0
550bd4c0
55139060
400f92
550bd514
550bd530
550bd54c
7ffff79c31a0
550bd4c0
55139060
400f92
550bd514
550bd530
550bd54c
7ffff79c31a0
550bd4c0
55139060
400f92
550bd514
550bd530
550bd54c
7ffff79c31a0
550bd4c0
55139060
400f92
550bd514
550bd530
550bd54c
7ffff79c31a0
550bd4c0
55139060
400f92
550bd514
550bd530
550bd54c
7ffff79c31a0
550bd4c0
55139060
400f92
550bd514
550bd530
550bd54c
7ffff79c31a0
550bd4c0
55139060
400f92
550bd514
550bd530
550bd54c
7ffff79c31a0
550bd4c0
55139060
400f92
550bd514
550bd530
550bd54c
7ffff79c31a0
550bd4c0
55139060
400f92
550bd514
550bd530
550bd54c
7ffff79c31a0
550bd4c0
55139060
400f92
550bd514
550bd530
550bd54c
7ffff79c31a0
550bd4c0
55139060
400f92
550bd514
550bd530
550bd54c
7ffff79c31a0
550bd4c0
55139060
400f92
550bd514
550bd530
550bd54c
7ffff79c31a0
550bd4c0
55139060
400f92
550bd514
550bd530
550bd54c
7ffff79c31a0
550bd4c0
55139060
400f92
550bd514
550bd530
550bd54c
7ffff79c31a0
550bd4c0
55139060
400f92
550bd514
550bd530
550bd54c
7ffff79c31a0
550bd4c0
55139060
400f92
550bd514
550bd530
550bd54c
Block 373:
  0x000000000040102e  8b 45 f4             mov    0xfffffff4(%rbp) -> %eax 
  0x0000000000401031  89 c7                mov    %eax -> %edi 
  0x0000000000401033  e8 b8 f8 ff ff       call   $0x00000000004008f0 %rsp -> %rsp 0xfffffff8(%rsp) 
  0x00000000004008f0  ff 25 52 87 21 00    jmp    <rel> 0x0000000000619048 

4008f6
Block 374:
  0x00000000004008f6  68 06 00 00 00       push   $0x0000000000000006 %rsp -> %rsp 0xfffffff8(%rsp) 
  0x00000000004008fb  e9 80 ff ff ff       jmp    $0x0000000000400880 
  0x0000000000400880  ff 35 82 87 21 00    push   <rel> 0x0000000000619008 %rsp -> %rsp 0xfffffff8(%rsp) 
  0x0000000000400886  ff 25 84 87 21 00    jmp    <rel> 0x0000000000619010 

7ffff7df12e0
550b9219
550b92d4
550b92f4
550b9350
550b9408
550b9440
550b9440
550b9440
550b9440
550b946c
550b94dc
550b9504
550b9600
550b961c
550b9638
550b9671
550b968c
550b96d4
550b971c
550b9738
550b975c
7ffff7debf05
550b97cc
550b97e8
550b9804
7ffff7debf34
550b9830
550b984c
7ffff7de4da6
550b988c
550b98a8
550b98c8
550b9600
550b961c
550b9638
550b9671
550b968c
550b96d4
550b971c
550b9738
550b975c
7ffff7debf05
550b97cc
550b97e8
550b9804
7ffff7debf34
550b9830
550b984c
7ffff7de4da6
550b988c
550b98a8
550b98c8
550b9600
550b961c
550b9638
550b9671
550b968c
550b96d4
550b971c
550b9738
550b975c
7ffff7debf05
550b97cc
550b97e8
550b9804
7ffff7debf34
550b9830
550b984c
7ffff7de4da6
550b988c
550b98a8
550b98c8
550b9600
550b961c
550b9638
550b9671
550b968c
550b96d4
550b98e8
550b9914
550b9980
550b99fc
550b9a18
550b9a3c
550b9a5d
550b9a8c
550b9abc
550b9ad8
550b9abc
550b9ad8
550b9abc
550b9ad8
550b9abc
550b9ad8
550b9abc
550b9ad8
550b9abc
7ffff7de4b4b
550b9b10
550b9b2e
550b9b4c
550b9b68
550b9ba6
550b9abc
550b9ad8
550b9abc
550b9ad8
550b9abc
550b9ad8
550b9abc
550b9ad8
550b9abc
550b9ad8
550b9abc
550b9ad8
550b9abc
550b9ad8
550b9abc
550b9ad8
550b9abc
550b9ad8
550b9abc
550b9ad8
550b9abc
550b9ad8
550b9abc
7ffff7de4bd4
550b9bd4
7ffff7de531f
550b9c14
550b9c30
550ba71c
7ffff7de57f8
550b9cec
550b9d08
550b9d24
550b9d40
550b9d5f
550b9d8c
550b9da8
7ffff7dea36c
550b9e00
550b9e2c
550b9e54
550b9e98
550b9eb4
550b9edc
7ffff7df1330
7ffff79c3200
Block 375:
  0x00007ffff79c3200  83 3d b9 c1 20 00 00 cmp    <rel> 0x00007ffff7bcf3c0 $0x00000000 
  0x00007ffff79c3207  75 10                jnz    $0x00007ffff79c3219 

550bd5fc
Block 376:
  0x00007ffff79c3209  b8 03 00 00 00       mov    $0x00000003 -> %eax 
  0x00007ffff79c320e  0f 05                syscall -> %rcx 

550bd634
550b3bc0
Block 377:
  0x00007ffff79c3210  48 3d 01 f0 ff ff    cmp    %rax $0xfffffffffffff001 
  0x00007ffff79c3216  73 31                jnb    $0x00007ffff79c3249 

550bd650
Block 378:
  0x00007ffff79c3218  c3                   ret    %rsp (%rsp) -> %rsp 

401038
Block 379:
  0x0000000000401038  e9 30 01 00 00       jmp    $0x000000000040116d 
  0x000000000040116d  8b 45 ec             mov    0xffffffec(%rbp) -> %eax 
  0x0000000000401170  48 63 d0             movsxd %eax -> %rdx 
  0x0000000000401173  48 89 d0             mov    %rdx -> %rax 
  0x0000000000401176  48 01 c0             add    %rax %rax -> %rax 
  0x0000000000401179  48 01 d0             add    %rdx %rax -> %rax 
  0x000000000040117c  48 c1 e0 03          shl    $0x0000000000000003 %rax -> %rax 
  0x0000000000401180  48 05 40 9e 61 00    add    $0x0000000000619e40 %rax -> %rax 
  0x0000000000401186  8b 40 04             mov    0x04(%rax) -> %eax 
  0x0000000000401189  3b 45 e8             cmp    %eax 0xffffffe8(%rbp) 
  0x000000000040118c  0f 8c ab fe ff ff    jl     $0x000000000040103d 

550bd688
Block 380:
  0x0000000000401192  b8 00 00 00 00       mov    $0x00000000 -> %eax 
  0x0000000000401197  c9                   leave  %rbp %rsp (%rbp) -> %rsp %rbp 
  0x0000000000401198  c3                   ret    %rsp (%rsp) -> %rsp 

401ea0
Block 381:
  0x0000000000401ea0  8b 05 22 72 21 00    mov    <rel> 0x00000000006190c8 -> %eax 
  0x0000000000401ea6  83 f8 03             cmp    %eax $0x00000003 
  0x0000000000401ea9  7e 17                jle    $0x0000000000401ec2 

550bd6dc
Block 382:
  0x0000000000401eab  8b 05 93 7f 21 00    mov    <rel> 0x0000000000619e44 -> %eax 
  0x0000000000401eb1  89 c6                mov    %eax -> %esi 
  0x0000000000401eb3  bf 48 65 41 00       mov    $0x00416548 -> %edi 
  0x0000000000401eb8  b8 00 00 00 00       mov    $0x00000000 -> %eax 
  0x0000000000401ebd  e8 fe e9 ff ff       call   $0x00000000004008c0 %rsp -> %rsp 0xfffffff8(%rsp) 
  0x00000000004008c0  ff 25 6a 87 21 00    jmp    <rel> 0x0000000000619030 

4008c6
Block 383:
  0x00000000004008c6  68 03 00 00 00       push   $0x0000000000000003 %rsp -> %rsp 0xfffffff8(%rsp) 
  0x00000000004008cb  e9 b0 ff ff ff       jmp    $0x0000000000400880 
  0x0000000000400880  ff 35 82 87 21 00    push   <rel> 0x0000000000619008 %rsp -> %rsp 0xfffffff8(%rsp) 
  0x0000000000400886  ff 25 84 87 21 00    jmp    <rel> 0x0000000000619010 

7ffff7df12e0
550b9219
550b92d4
550b92f4
550b9350
550b9408
550b9440
550b9440
550b9440
550b9440
550b9440
550b946c
550b94dc
550b9504
550b9600
550b961c
550b9638
550b9671
550b968c
550b96d4
550b971c
550b9738
550b975c
7ffff7debf05
550b97cc
550b97e8
550b9804
7ffff7debf34
550b9830
550b984c
7ffff7de4da6
550b988c
550b98a8
550b98c8
550b9600
550b961c
550b9638
550b9671
550b968c
550b96d4
550b971c
550b9738
550b975c
7ffff7debf05
550b97cc
550b97e8
550b9804
7ffff7debf34
550b9830
550b984c
7ffff7de4da6
550b988c
550b98a8
550b98c8
550b9600
550b961c
550b9638
550b9671
550b968c
550b96d4
550b971c
550b9738
550b975c
7ffff7debf05
550b97cc
550b97e8
550b9804
7ffff7debf34
550b9830
550b984c
7ffff7de4da6
550b988c
550b98a8
550b98c8
550b9600
550b961c
550b9638
550b9671
550b968c
550b96d4
550b971c
550b9738
550b975c
7ffff7debf05
550b97cc
550b97e8
550b9804
7ffff7debf34
550b9830
550b984c
7ffff7de4da6
550b988c
550b98a8
550b98c8
550b9600
550b961c
550b9638
550b9671
550b968c
550b96d4
550b98e8
550b9914
550ba6e0
550ba6fc
550b9980
550b99fc
550b9a18
550b9a3c
550b9a5d
550b9a8c
550b9abc
550b9ad8
550b9abc
550b9ad8
550b9abc
550b9ad8
550b9abc
550b9ad8
550b9abc
550b9ad8
550b9abc
550b9ad8
550b9abc
7ffff7de4b4b
550b9b10
550b9b2e
550b9b4c
550b9b68
550b9ba6
550b9abc
550b9ad8
550b9abc
550b9ad8
550b9abc
550b9ad8
550b9abc
550b9ad8
550b9abc
550b9ad8
550b9abc
550b9ad8
550b9abc
550b9ad8
550b9abc
550b9ad8
550b9abc
550b9ad8
550b9abc
550b9ad8
550b9abc
550b9ad8
550b9abc
7ffff7de4bd4
550b9bd4
7ffff7de531f
550b9c14
550b9c30
550b9c70
550b9c8c
7ffff7de57f8
550b9cec
550b9d08
550b9d24
550b9d40
550b9d5f
550b9d8c
550b9da8
7ffff7dea36c
550b9e00
550b9e2c
550b9e54
550b9e98
550b9eb4
550b9edc
7ffff7df1330
7ffff764a6c0
Block 384:
  0x00007ffff764a6c0  48 81 ec d8 00 00 00 sub    $0x00000000000000d8 %rsp -> %rsp 
  0x00007ffff764a6c7  84 c0                test   %al %al 
  0x00007ffff764a6c9  48 89 74 24 28       mov    %rsi -> 0x28(%rsp) 
  0x00007ffff764a6ce  48 89 54 24 30       mov    %rdx -> 0x30(%rsp) 
  0x00007ffff764a6d3  48 89 4c 24 38       mov    %rcx -> 0x38(%rsp) 
  0x00007ffff764a6d8  4c 89 44 24 40       mov    %r8 -> 0x40(%rsp) 
  0x00007ffff764a6dd  4c 89 4c 24 48       mov    %r9 -> 0x48(%rsp) 
  0x00007ffff764a6e2  74 37                jz     $0x00007ffff764a71b 

550bd757
Block 385:
  0x00007ffff764a71b  48 8d 84 24 e0 00 00 lea    0x000000e0(%rsp) -> %rax 
                      00
  0x00007ffff764a723  48 89 fe             mov    %rdi -> %rsi 
  0x00007ffff764a726  48 8d 54 24 08       lea    0x08(%rsp) -> %rdx 
  0x00007ffff764a72b  48 89 44 24 10       mov    %rax -> 0x10(%rsp) 
  0x00007ffff764a730  48 8d 44 24 20       lea    0x20(%rsp) -> %rax 
  0x00007ffff764a735  c7 44 24 08 08 00 00 mov    $0x00000008 -> 0x08(%rsp) 
                      00
  0x00007ffff764a73d  c7 44 24 0c 30 00 00 mov    $0x00000030 -> 0x0c(%rsp) 
                      00
  0x00007ffff764a745  48 89 44 24 18       mov    %rax -> 0x18(%rsp) 
  0x00007ffff764a74a  48 8b 05 bf 37 36 00 mov    <rel> 0x00007ffff79adf10 -> %rax 
  0x00007ffff764a751  48 8b 38             mov    (%rax) -> %rdi 
  0x00007ffff764a754  e8 a7 4e ff ff       call   $0x00007ffff763f600 %rsp -> %rsp 0xfffffff8(%rsp) 
  0x00007ffff763f600  55                   push   %rbp %rsp -> %rsp 0xfffffff8(%rsp) 
  0x00007ffff763f601  48 89 e5             mov    %rsp -> %rbp 
  0x00007ffff763f604  41 57                push   %r15 %rsp -> %rsp 0xfffffff8(%rsp) 
  0x00007ffff763f606  41 56                push   %r14 %rsp -> %rsp 0xfffffff8(%rsp) 
  0x00007ffff763f608  41 55                push   %r13 %rsp -> %rsp 0xfffffff8(%rsp) 
  0x00007ffff763f60a  41 54                push   %r12 %rsp -> %rsp 0xfffffff8(%rsp) 
  0x00007ffff763f60c  53                   push   %rbx %rsp -> %rsp 0xfffffff8(%rsp) 
  0x00007ffff763f60d  48 81 ec 98 05 00 00 sub    $0x0000000000000598 %rsp -> %rsp 
  0x00007ffff763f614  48 8b 05 25 e8 36 00 mov    <rel> 0x00007ffff79ade40 -> %rax 
  0x00007ffff763f61b  64 8b 00             mov    %fs:(%rax) -> %eax 
  0x00007ffff763f61e  89 85 54 fb ff ff    mov    %eax -> 0xfffffb54(%rbp) 
  0x00007ffff763f624  8b 87 c0 00 00 00    mov    0x000000c0(%rdi) -> %eax 
  0x00007ffff763f62a  85 c0                test   %eax %eax 
  0x00007ffff763f62c  0f 85 ee 00 00 00    jnz    $0x00007ffff763f720 

550bd78c
Block 386:
  0x00007ffff763f720  83 f8 ff             cmp    %eax $0xffffffff 
  0x00007ffff763f723  0f 84 13 ff ff ff    jz     $0x00007ffff763f63c 

550bd83b
Block 387:
  0x00007ffff763f63c  8b 1f                mov    (%rdi) -> %ebx 
  0x00007ffff763f63e  f6 c3 08             test   %bl $0x08 
  0x00007ffff763f641  0f 85 91 05 00 00    jnz    $0x00007ffff763fbd8 

550bd854
Block 388:
  0x00007ffff763f647  48 85 f6             test   %rsi %rsi 
  0x00007ffff763f64a  0f 84 6b 0c 00 00    jz     $0x00007ffff76402bb 

550bd870
Block 389:
  0x00007ffff763f650  f6 c3 02             test   %bl $0x02 
  0x00007ffff763f653  49 89 d4             mov    %rdx -> %r12 
  0x00007ffff763f656  49 89 f5             mov    %rsi -> %r13 
  0x00007ffff763f659  49 89 ff             mov    %rdi -> %r15 
  0x00007ffff763f65c  0f 85 5e 01 00 00    jnz    $0x00007ffff763f7c0 

550bd88c
Block 390:
  0x00007ffff763f662  48 8b 02             mov    (%rdx) -> %rax 
  0x00007ffff763f665  be 25 00 00 00       mov    $0x00000025 -> %esi 
  0x00007ffff763f66a  4c 89 ef             mov    %r13 -> %rdi 
  0x00007ffff763f66d  48 89 85 a8 fb ff ff mov    %rax -> 0xfffffba8(%rbp) 
  0x00007ffff763f674  48 8b 42 08          mov    0x08(%rdx) -> %rax 
  0x00007ffff763f678  48 89 85 b0 fb ff ff mov    %rax -> 0xfffffbb0(%rbp) 
  0x00007ffff763f67f  48 8b 42 10          mov    0x10(%rdx) -> %rax 
  0x00007ffff763f683  48 89 85 b8 fb ff ff mov    %rax -> 0xfffffbb8(%rbp) 
  0x00007ffff763f68a  e8 11 d6 04 00       call   $0x00007ffff768cca0 %rsp -> %rsp 0xfffffff8(%rsp) 
  0x00007ffff768cca0  66 0f 6e ce          data16 movd   %esi -> %xmm1 
  0x00007ffff768cca4  89 f8                mov    %edi -> %eax 
  0x00007ffff768cca6  25 ff 0f 00 00       and    $0x00000fff %eax -> %eax 
  0x00007ffff768ccab  66 0f 60 c9          data16 punpcklbw %xmm1 %xmm1 -> %xmm1 
  0x00007ffff768ccaf  3d c0 0f 00 00       cmp    %eax $0x00000fc0 
  0x00007ffff768ccb4  66 0f 61 c9          data16 punpcklwd %xmm1 %xmm1 -> %xmm1 
  0x00007ffff768ccb8  66 0f 70 c9 00       data16 pshufd %xmm1 $0x00 -> %xmm1 
  0x00007ffff768ccbd  0f 8f 4d 01 00 00    jnle   $0x00007ffff768ce10 

550bd8ac
Block 391:
  0x00007ffff768ccc3  f3 0f 6f 07          movdqu (%rdi) -> %xmm0 
  0x00007ffff768ccc7  66 0f ef db          data16 pxor   %xmm3 %xmm3 -> %xmm3 
  0x00007ffff768cccb  66 0f 6f e0          data16 movdqa %xmm0 -> %xmm4 
  0x00007ffff768cccf  66 0f 74 c1          data16 pcmpeqb %xmm1 %xmm0 -> %xmm0 
  0x00007ffff768ccd3  66 0f 74 e3          data16 pcmpeqb %xmm3 %xmm4 -> %xmm4 
  0x00007ffff768ccd7  66 0f eb c4          data16 por    %xmm4 %xmm0 -> %xmm0 
  0x00007ffff768ccdb  66 0f d7 c0          data16 pmovmskb %xmm0 -> %eax 
  0x00007ffff768ccdf  85 c0                test   %eax %eax 
  0x00007ffff768cce1  74 0d                jz     $0x00007ffff768ccf0 

550bd914
Block 392:
  0x00007ffff768cce3  0f bc c0             bsf    %eax -> %eax 
  0x00007ffff768cce6  48 8d 04 07          lea    (%rdi,%rax,1) -> %rax 
  0x00007ffff768ccea  c3                   ret    %rsp (%rsp) -> %rsp 

7ffff763f68f
Block 393:
  0x00007ffff763f68f  80 e7 80             and    $0x80 %bh -> %bh 
  0x00007ffff763f692  48 89 85 48 fb ff ff mov    %rax -> 0xfffffb48(%rbp) 
  0x00007ffff763f699  48 89 85 68 fb ff ff mov    %rax -> 0xfffffb68(%rbp) 
  0x00007ffff763f6a0  c7 85 58 fb ff ff 00 mov    $0x00000000 -> 0xfffffb58(%rbp) 
                      00 00 00
  0x00007ffff763f6aa  0f 84 80 00 00 00    jz     $0x00007ffff763f730 

550bd968
Block 394:
  0x00007ffff763f730  8b 05 ba 45 37 00    mov    <rel> 0x00007ffff79b3cf0 -> %eax 
  0x00007ffff763f736  85 c0                test   %eax %eax 
  0x00007ffff763f738  89 85 58 fb ff ff    mov    %eax -> 0xfffffb58(%rbp) 
  0x00007ffff763f73e  0f 85 fc 00 00 00    jnz    $0x00007ffff763f840 

550bd998
Block 395:
  0x00007ffff763f840  48 8b 05 69 44 37 00 mov    <rel> 0x00007ffff79b3cb0 -> %rax 
  0x00007ffff763f847  48 8d bd c0 fb ff ff lea    0xfffffbc0(%rbp) -> %rdi 
  0x00007ffff763f84e  4c 89 fa             mov    %r15 -> %rdx 
  0x00007ffff763f851  48 c1 c8 11          ror    $0x0000000000000011 %rax -> %rax 
  0x00007ffff763f855  64 48 33 04 25 30 00 xor    %fs:0x30 %rax -> %rax 
                      00 00
  0x00007ffff763f85e  48 8b 35 cb e6 36 00 mov    <rel> 0x00007ffff79adf30 -> %rsi 
  0x00007ffff763f865  ff d0                call   %rax %rsp -> %rsp 0xfffffff8(%rsp) 

7ffff79c2a60
Block 396:
  0x00007ffff79c2a60  48 89 37             mov    %rsi -> (%rdi) 
  0x00007ffff79c2a63  48 89 57 08          mov    %rdx -> 0x08(%rdi) 
  0x00007ffff79c2a67  64 48 8b 04 25 f8 02 mov    %fs:0x000002f8 -> %rax 
                      00 00
  0x00007ffff79c2a70  48 89 47 18          mov    %rax -> 0x18(%rdi) 
  0x00007ffff79c2a74  64 8b 14 25 08 03 00 mov    %fs:0x00000308 -> %edx 
                      00
  0x00007ffff79c2a7c  89 d0                mov    %edx -> %eax 
  0x00007ffff79c2a7e  83 e0 02             and    $0x00000002 %eax -> %eax 
  0x00007ffff79c2a81  75 25                jnz    $0x00007ffff79c2aa8 

550bda34
Block 397:
  0x00007ffff79c2a83  85 c0                test   %eax %eax 
  0x00007ffff79c2a85  0f 95 c0             setnz  -> %al 
  0x00007ffff79c2a88  0f b6 c0             movzx  %al -> %eax 
  0x00007ffff79c2a8b  89 47 10             mov    %eax -> 0x10(%rdi) 
  0x00007ffff79c2a8e  64 48 89 3c 25 f8 02 mov    %rdi -> %fs:0x000002f8 
                      00 00
  0x00007ffff79c2a97  c3                   ret    %rsp (%rsp) -> %rsp 

7ffff763f867
Block 398:
  0x00007ffff763f867  41 f7 07 00 80 00 00 test   (%r15) $0x00008000 
  0x00007ffff763f86e  0f 84 e5 fe ff ff    jz     $0x00007ffff763f759 

550bdac8
Block 399:
  0x00007ffff763f759  49 8b 97 88 00 00 00 mov    0x00000088(%r15) -> %rdx 
  0x00007ffff763f760  64 4c 8b 0c 25 10 00 mov    %fs:0x10 -> %r9 
                      00 00
  0x00007ffff763f769  4c 3b 4a 08          cmp    %r9 0x08(%rdx) 
  0x00007ffff763f76d  74 45                jz     $0x00007ffff763f7b4 

550bdae4
Block 400:
  0x00007ffff763f76f  be 01 00 00 00       mov    $0x00000001 -> %esi 
  0x00007ffff763f774  31 c0                xor    %eax %eax -> %eax 
  0x00007ffff763f776  83 3d 77 45 37 00 00 cmp    <rel> 0x00007ffff79b3cf4 $0x00000000 
  0x00007ffff763f77d  74 08                jz     $0x00007ffff763f787 

550bdb14
Block 401:
  0x00007ffff763f787  0f b1 32             cmpxchg %esi (%rdx) %eax -> (%rdx) %eax 
  0x00007ffff763f78a  74 16                jz     $0x00007ffff763f7a2 

550bdb54
Block 402:
  0x00007ffff763f7a2  49 8b 87 88 00 00 00 mov    0x00000088(%r15) -> %rax 
  0x00007ffff763f7a9  49 8b 97 88 00 00 00 mov    0x00000088(%r15) -> %rdx 
  0x00007ffff763f7b0  4c 89 48 08          mov    %r9 -> 0x08(%rax) 
  0x00007ffff763f7b4  83 42 04 01          add    $0x00000001 0x04(%rdx) -> 0x04(%rdx) 
  0x00007ffff763f7b8  e9 f3 fe ff ff       jmp    $0x00007ffff763f6b0 
  0x00007ffff763f6b0  48 8b 9d 48 fb ff ff mov    0xfffffb48(%rbp) -> %rbx 
  0x00007ffff763f6b7  49 8b 87 d8 00 00 00 mov    0x000000d8(%r15) -> %rax 
  0x00007ffff763f6be  4c 89 ee             mov    %r13 -> %rsi 
  0x00007ffff763f6c1  4c 89 ff             mov    %r15 -> %rdi 
  0x00007ffff763f6c4  4c 29 eb             sub    %r13 %rbx -> %rbx 
  0x00007ffff763f6c7  48 89 da             mov    %rbx -> %rdx 
  0x00007ffff763f6ca  ff 50 38             call   0x38(%rax) %rsp -> %rsp 0xfffffff8(%rsp) 

7ffff7670340
550bb61c
550bb648
550bb673
550bd144
550bd164
550bd198
Block 403:
  0x00007ffff76858fb  0f b6 0e             movzx  (%rsi) -> %ecx 
  0x00007ffff76858fe  88 0f                mov    %cl -> (%rdi) 
  0x00007ffff7685900  48 ff c6             inc    %rsi -> %rsi 
  0x00007ffff7685903  48 ff c7             inc    %rdi -> %rdi 
  0x00007ffff7685906  f6 c2 02             test   %dl $0x02 
  0x00007ffff7685909  74 0e                jz     $0x00007ffff7685919 

550bdbc8
550bd1d0
550bd1f6
Block 404:
  0x00007ffff768592f  48 8b 0e             mov    (%rsi) -> %rcx 
  0x00007ffff7685932  48 89 0f             mov    %rcx -> (%rdi) 
  0x00007ffff7685935  48 83 c6 08          add    $0x0000000000000008 %rsi -> %rsi 
  0x00007ffff7685939  48 83 c7 08          add    $0x0000000000000008 %rdi -> %rdi 
  0x00007ffff768593d  0f 1f 00             nop    (%rax) 
  0x00007ffff7685940  81 e2 f0 00 00 00    and    $0x000000f0 %edx -> %edx 
  0x00007ffff7685946  74 23                jz     $0x00007ffff768596b 

550bdbec
7ffff76703a0
550bd27c
7ffff763f6cd
Block 405:
  0x00007ffff763f6cd  48 39 c3             cmp    %rbx %rax 
  0x00007ffff763f6d0  c7 85 5c fb ff ff ff mov    $0xffffffff -> 0xfffffb5c(%rbp) 
                      ff ff ff
  0x00007ffff763f6da  0f 84 a0 01 00 00    jz     $0x00007ffff763f880 

550bdc18
Block 406:
  0x00007ffff763f880  48 81 fb ff ff ff 7f cmp    %rbx $0x000000007fffffff 
  0x00007ffff763f887  0f 8f 73 09 00 00    jnle   $0x00007ffff7640200 

550bdc38
Block 407:
  0x00007ffff763f88d  48 8b 95 68 fb ff ff mov    0xfffffb68(%rbp) -> %rdx 
  0x00007ffff763f894  89 9d 5c fb ff ff    mov    %ebx -> 0xfffffb5c(%rbp) 
  0x00007ffff763f89a  80 3a 00             cmp    (%rdx) $0x00 
  0x00007ffff763f89d  0f 84 3d fe ff ff    jz     $0x00007ffff763f6e0 

550bdc54
Block 408:
  0x00007ffff763f8a3  48 83 3d 7d 41 37 00 cmp    <rel> 0x00007ffff79b3a28 $0x0000000000000000 
                      00
  0x00007ffff763f8ab  0f 85 4f 01 00 00    jnz    $0x00007ffff763fa00 

550bdc78
Block 409:
  0x00007ffff763f8b1  48 83 3d 77 41 37 00 cmp    <rel> 0x00007ffff79b3a30 $0x0000000000000000 
                      00
  0x00007ffff763f8b9  0f 85 41 01 00 00    jnz    $0x00007ffff763fa00 

550bdcb0
Block 410:
  0x00007ffff763f8bf  48 83 3d 51 00 37 00 cmp    <rel> 0x00007ffff79af918 $0x0000000000000000 
                      00
  0x00007ffff763f8c7  0f 85 33 01 00 00    jnz    $0x00007ffff763fa00 

550bdce8
Block 411:
  0x00007ffff763f8cd  4c 8d 35 d6 2d 00 00 lea    <rel> 0x00007ffff76426aa -> %r14 
  0x00007ffff763f8d4  c6 85 53 fb ff ff 00 mov    $0x00 -> 0xfffffb53(%rbp) 
  0x00007ffff763f8db  48 c7 85 08 fb ff ff mov    $0x00000000 -> 0xfffffb08(%rbp) 
                      00 00 00 00
  0x00007ffff763f8e6  c7 85 10 fb ff ff 00 mov    $0x00000000 -> 0xfffffb10(%rbp) 
                      00 00 00
  0x00007ffff763f8f0  c7 85 14 fb ff ff 00 mov    $0x00000000 -> 0xfffffb14(%rbp) 
                      00 00 00
  0x00007ffff763f8fa  48 c7 85 18 fb ff ff mov    $0xffffffff -> 0xfffffb18(%rbp) 
                      ff ff ff ff
  0x00007ffff763f905  48 c7 85 00 fb ff ff mov    $0x00000000 -> 0xfffffb00(%rbp) 
                      00 00 00 00
  0x00007ffff763f910  48 8d 42 01          lea    0x01(%rdx) -> %rax 
  0x00007ffff763f914  48 89 85 68 fb ff ff mov    %rax -> 0xfffffb68(%rbp) 
  0x00007ffff763f91b  0f b6 42 01          movzx  0x01(%rdx) -> %eax 
  0x00007ffff763f91f  8d 50 e0             lea    0xffffffe0(%rax) -> %edx 
  0x00007ffff763f922  88 85 20 fb ff ff    mov    %al -> 0xfffffb20(%rbp) 
  0x00007ffff763f928  4c 89 f0             mov    %r14 -> %rax 
  0x00007ffff763f92b  80 fa 5a             cmp    %dl $0x5a 
  0x00007ffff763f92e  77 25                jnbe   $0x00007ffff763f955 

550bdd20
Block 412:
  0x00007ffff763f930  0f be 85 20 fb ff ff movsx  0xfffffb20(%rbp) -> %eax 
  0x00007ffff763f937  48 8d 15 42 52 13 00 lea    <rel> 0x00007ffff7774b80 -> %rdx 
  0x00007ffff763f93e  83 e8 20             sub    $0x00000020 %eax -> %eax 
  0x00007ffff763f941  48 98                cwde   %ax -> %rax 
  0x00007ffff763f943  0f b6 14 02          movzx  (%rdx,%rax,1) -> %edx 
  0x00007ffff763f947  48 8d 05 b2 51 13 00 lea    <rel> 0x00007ffff7774b00 -> %rax 
  0x00007ffff763f94e  48 63 04 90          movsxd (%rax,%rdx,4) -> %rax 
  0x00007ffff763f952  4c 01 f0             add    %r14 %rax -> %rax 
  0x00007ffff763f955  48 8d 4d c8          lea    0xffffffc8(%rbp) -> %rcx 
  0x00007ffff763f959  31 db                xor    %ebx %ebx -> %ebx 
  0x00007ffff763f95b  c7 85 c8 fa ff ff 00 mov    $0x00000000 -> 0xfffffac8(%rbp) 
                      00 00 00
  0x00007ffff763f965  c7 85 d0 fa ff ff 00 mov    $0x00000000 -> 0xfffffad0(%rbp) 
                      00 00 00
  0x00007ffff763f96f  c7 85 e0 fa ff ff 00 mov    $0x00000000 -> 0xfffffae0(%rbp) 
                      00 00 00
  0x00007ffff763f979  48 89 8d 30 fb ff ff mov    %rcx -> 0xfffffb30(%rbp) 
  0x00007ffff763f980  c7 85 d8 fa ff ff 00 mov    $0x00000000 -> 0xfffffad8(%rbp) 
                      00 00 00
  0x00007ffff763f98a  c7 85 b0 fa ff ff 00 mov    $0x00000000 -> 0xfffffab0(%rbp) 
                      00 00 00
  0x00007ffff763f994  c7 85 bc fa ff ff 00 mov    $0x00000000 -> 0xfffffabc(%rbp) 
                      00 00 00
  0x00007ffff763f99e  c7 85 c0 fa ff ff 00 mov    $0x00000000 -> 0xfffffac0(%rbp) 
                      00 00 00
  0x00007ffff763f9a8  c7 85 e8 fa ff ff 00 mov    $0x00000000 -> 0xfffffae8(%rbp) 
                      00 00 00
  0x00007ffff763f9b2  c7 85 a8 fa ff ff 00 mov    $0x00000000 -> 0xfffffaa8(%rbp) 
                      00 00 00
  0x00007ffff763f9bc  c7 85 f8 fa ff ff 00 mov    $0x00000000 -> 0xfffffaf8(%rbp) 
                      00 00 00
  0x00007ffff763f9c6  c7 85 f0 fa ff ff ff mov    $0xffffffff -> 0xfffffaf0(%rbp) 
                      ff ff ff
  0x00007ffff763f9d0  c7 85 b8 fa ff ff 00 mov    $0x00000000 -> 0xfffffab8(%rbp) 
                      00 00 00
  0x00007ffff763f9da  c6 85 cc fa ff ff 20 mov    $0x20 -> 0xfffffacc(%rbp) 
  0x00007ffff763f9e1  48 8d 8d 68 fb ff ff lea    0xfffffb68(%rbp) -> %rcx 
  0x00007ffff763f9e8  48 89 8d 90 fa ff ff mov    %rcx -> 0xfffffa90(%rbp) 
  0x00007ffff763f9ef  48 8d 8d 90 fb ff ff lea    0xfffffb90(%rbp) -> %rcx 
  0x00007ffff763f9f6  48 89 8d 70 fa ff ff mov    %rcx -> 0xfffffa70(%rbp) 
  0x00007ffff763f9fd  ff e0                jmp    %rax 

7ffff76436c6
Block 413:
  0x00007ffff76436c6  83 bd e8 fa ff ff 00 cmp    0xfffffae8(%rbp) $0x00000000 
  0x00007ffff76436cd  41 8b 14 24          mov    (%r12) -> %edx 
  0x00007ffff76436d1  0f 84 be 08 00 00    jz     $0x00007ffff7643f95 

550bde84
Block 414:
  0x00007ffff7643f95  83 bd a8 fa ff ff 00 cmp    0xfffffaa8(%rbp) $0x00000000 
  0x00007ffff7643f9c  74 47                jz     $0x00007ffff7643fe5 

550bdea4
Block 415:
  0x00007ffff7643fe5  83 bd c0 fa ff ff 00 cmp    0xfffffac0(%rbp) $0x00000000 
  0x00007ffff7643fec  0f 85 bf 00 00 00    jnz    $0x00007ffff76440b1 

550bdec0
Block 416:
  0x00007ffff7643ff2  83 fa 30             cmp    %edx $0x00000030 
  0x00007ffff7643ff5  0f 83 a3 00 00 00    jnb    $0x00007ffff764409e 

550bdedc
Block 417:
  0x00007ffff7643ffb  89 d0                mov    %edx -> %eax 
  0x00007ffff7643ffd  49 03 44 24 10       add    0x10(%r12) %rax -> %rax 
  0x00007ffff7644002  83 c2 08             add    $0x00000008 %edx -> %edx 
  0x00007ffff7644005  41 89 14 24          mov    %edx -> (%r12) 
  0x00007ffff7644009  4c 63 08             movsxd (%rax) -> %r9 
  0x00007ffff764400c  e9 e0 f6 ff ff       jmp    $0x00007ffff76436f1 
  0x00007ffff76436f1  4d 85 c9             test   %r9 %r9 
  0x00007ffff76436f4  0f 89 1f 06 00 00    jns    $0x00007ffff7643d19 

550bdef8
Block 418:
  0x00007ffff7643d19  c7 85 bc fa ff ff 0a mov    $0x0000000a -> 0xfffffabc(%rbp) 
                      00 00 00
  0x00007ffff7643d23  45 31 d2             xor    %r10d %r10d -> %r10d 
  0x00007ffff7643d26  e9 e2 f9 ff ff       jmp    $0x00007ffff764370d 
  0x00007ffff764370d  83 bd f0 fa ff ff 00 cmp    0xfffffaf0(%rbp) $0x00000000 
  0x00007ffff7643714  0f 88 ca 05 00 00    js     $0x00007ffff7643ce4 

550bdf20
Block 419:
  0x00007ffff7643ce4  c7 85 f0 fa ff ff 01 mov    $0x00000001 -> 0xfffffaf0(%rbp) 
                      00 00 00
  0x00007ffff7643cee  e9 10 ff ff ff       jmp    $0x00007ffff7643c03 
  0x00007ffff7643c03  31 c9                xor    %ecx %ecx -> %ecx 
  0x00007ffff7643c05  80 bd 20 fb ff ff 58 cmp    0xfffffb20(%rbp) $0x58 
  0x00007ffff7643c0c  8b 95 bc fa ff ff    mov    0xfffffabc(%rbp) -> %edx 
  0x00007ffff7643c12  48 8b b5 30 fb ff ff mov    0xfffffb30(%rbp) -> %rsi 
  0x00007ffff7643c19  4c 89 cf             mov    %r9 -> %rdi 
  0x00007ffff7643c1c  44 89 95 a8 fa ff ff mov    %r10d -> 0xfffffaa8(%rbp) 
  0x00007ffff7643c23  4c 89 8d c0 fa ff ff mov    %r9 -> 0xfffffac0(%rbp) 
  0x00007ffff7643c2a  0f 94 c1             setz   -> %cl 
  0x00007ffff7643c2d  e8 ae b4 ff ff       call   $0x00007ffff763f0e0 %rsp -> %rsp 0xfffffff8(%rsp) 
  0x00007ffff763f0e0  48 8d 05 19 55 13 00 lea    <rel> 0x00007ffff7774600 -> %rax 
  0x00007ffff763f0e7  4c 8d 05 52 55 13 00 lea    <rel> 0x00007ffff7774640 -> %r8 
  0x00007ffff763f0ee  85 c9                test   %ecx %ecx 
  0x00007ffff763f0f0  4c 0f 44 c0          cmovz  %rax %r8 -> %r8 
  0x00007ffff763f0f4  83 fa 0a             cmp    %edx $0x0000000a 
  0x00007ffff763f0f7  74 77                jz     $0x00007ffff763f170 

550bdf48
Block 420:
  0x00007ffff763f170  49 b9 cd cc cc cc cc mov    $0xcccccccccccccccd -> %r9 
                      cc cc cc
  0x00007ffff763f17a  66 0f 1f 44 00 00    data16 nop    0x00(%rax,%rax,1) 
  0x00007ffff763f180  48 89 f8             mov    %rdi -> %rax 
  0x00007ffff763f183  48 83 ee 01          sub    $0x0000000000000001 %rsi -> %rsi 
  0x00007ffff763f187  49 f7 e1             mul    %r9 %rax -> %rdx %rax 
  0x00007ffff763f18a  48 c1 ea 03          shr    $0x0000000000000003 %rdx -> %rdx 
  0x00007ffff763f18e  48 8d 0c 92          lea    (%rdx,%rdx,4) -> %rcx 
  0x00007ffff763f192  48 01 c9             add    %rcx %rcx -> %rcx 
  0x00007ffff763f195  48 29 cf             sub    %rcx %rdi -> %rdi 
  0x00007ffff763f198  48 85 d2             test   %rdx %rdx 
  0x00007ffff763f19b  41 0f b6 04 38       movzx  (%r8,%rdi,1) -> %eax 
  0x00007ffff763f1a0  48 89 d7             mov    %rdx -> %rdi 
  0x00007ffff763f1a3  88 06                mov    %al -> (%rsi) 
  0x00007ffff763f1a5  75 d9                jnz    $0x00007ffff763f180 

550bdfbc
Block 421:
  0x00007ffff763f180  48 89 f8             mov    %rdi -> %rax 
  0x00007ffff763f183  48 83 ee 01          sub    $0x0000000000000001 %rsi -> %rsi 
  0x00007ffff763f187  49 f7 e1             mul    %r9 %rax -> %rdx %rax 
  0x00007ffff763f18a  48 c1 ea 03          shr    $0x0000000000000003 %rdx -> %rdx 
  0x00007ffff763f18e  48 8d 0c 92          lea    (%rdx,%rdx,4) -> %rcx 
  0x00007ffff763f192  48 01 c9             add    %rcx %rcx -> %rcx 
  0x00007ffff763f195  48 29 cf             sub    %rcx %rdi -> %rdi 
  0x00007ffff763f198  48 85 d2             test   %rdx %rdx 
  0x00007ffff763f19b  41 0f b6 04 38       movzx  (%r8,%rdi,1) -> %eax 
  0x00007ffff763f1a0  48 89 d7             mov    %rdx -> %rdi 
  0x00007ffff763f1a3  88 06                mov    %al -> (%rsi) 
  0x00007ffff763f1a5  75 d9                jnz    $0x00007ffff763f180 

550be008
550be008
550be008
550be008
550be008
550be008
Block 422:
  0x00007ffff763f1a7  48 89 f0             mov    %rsi -> %rax 
  0x00007ffff763f1aa  c3                   ret    %rsp (%rsp) -> %rsp 

7ffff7643c32
Block 423:
  0x00007ffff7643c32  48 83 bd 18 fb ff ff cmp    0xfffffb18(%rbp) $0x0000000000000000 
                      00
  0x00007ffff7643c3a  48 89 85 e8 fa ff ff mov    %rax -> 0xfffffae8(%rbp) 
  0x00007ffff7643c41  4c 8b 8d c0 fa ff ff mov    0xfffffac0(%rbp) -> %r9 
  0x00007ffff7643c48  44 8b 95 a8 fa ff ff mov    0xfffffaa8(%rbp) -> %r10d 
  0x00007ffff7643c4f  74 0d                jz     $0x00007ffff7643c5e 

550be05c
Block 424:
  0x00007ffff7643c51  83 bd b0 fa ff ff 00 cmp    0xfffffab0(%rbp) $0x00000000 
  0x00007ffff7643c58  0f 85 99 02 00 00    jnz    $0x00007ffff7643ef7 

550be08c
Block 425:
  0x00007ffff7643c5e  83 bd bc fa ff ff 0a cmp    0xfffffabc(%rbp) $0x0000000a 
  0x00007ffff7643c65  75 0d                jnz    $0x00007ffff7643c74 

550be0a8
Block 426:
  0x00007ffff7643c67  83 bd b8 fa ff ff 00 cmp    0xfffffab8(%rbp) $0x00000000 
  0x00007ffff7643c6e  0f 85 c8 02 00 00    jnz    $0x00007ffff7643f3c 

550be0c4
Block 427:
  0x00007ffff7643c74  4d 85 c9             test   %r9 %r9 
  0x00007ffff7643c77  48 63 85 f0 fa ff ff movsxd 0xfffffaf0(%rbp) -> %rax 
  0x00007ffff7643c7e  48 8b 95 30 fb ff ff mov    0xfffffb30(%rbp) -> %rdx 
  0x00007ffff7643c85  0f 95 85 f0 fa ff ff setnz  -> 0xfffffaf0(%rbp) 
  0x00007ffff7643c8c  48 2b 95 e8 fa ff ff sub    0xfffffae8(%rbp) %rdx -> %rdx 
  0x00007ffff7643c93  0f b6 8d f0 fa ff ff movzx  0xfffffaf0(%rbp) -> %ecx 
  0x00007ffff7643c9a  48 39 d0             cmp    %rax %rdx 
  0x00007ffff7643c9d  0f 9e c2             setle  -> %dl 
  0x00007ffff7643ca0  20 ca                and    %cl %dl -> %dl 
  0x00007ffff7643ca2  0f 84 c9 fa ff ff    jz     $0x00007ffff7643771 

550be0e0
Block 428:
  0x00007ffff7643ca8  83 bd c8 fa ff ff 00 cmp    0xfffffac8(%rbp) $0x00000000 
  0x00007ffff7643caf  40 0f 95 c6          setnz  -> %sil 
  0x00007ffff7643cb3  83 bd bc fa ff ff 08 cmp    0xfffffabc(%rbp) $0x00000008 
  0x00007ffff7643cba  0f 94 c1             setz   -> %cl 
  0x00007ffff7643cbd  40 20 ce             and    %cl %sil -> %sil 
  0x00007ffff7643cc0  40 88 b5 f0 fa ff ff mov    %sil -> 0xfffffaf0(%rbp) 
  0x00007ffff7643cc7  74 2a                jz     $0x00007ffff7643cf3 

550be124
Block 429:
  0x00007ffff7643cf3  88 95 f0 fa ff ff    mov    %dl -> 0xfffffaf0(%rbp) 
  0x00007ffff7643cf9  e9 73 fa ff ff       jmp    $0x00007ffff7643771 
  0x00007ffff7643771  48 8b 8d e8 fa ff ff mov    0xfffffae8(%rbp) -> %rcx 
  0x00007ffff7643778  48 2b 8d 30 fb ff ff sub    0xfffffb30(%rbp) %rcx -> %rcx 
  0x00007ffff764377f  48 01 c8             add    %rcx %rax -> %rax 
  0x00007ffff7643782  48 89 8d a8 fa ff ff mov    %rcx -> 0xfffffaa8(%rbp) 
  0x00007ffff7643789  48 89 c1             mov    %rax -> %rcx 
  0x00007ffff764378c  b8 00 00 00 00       mov    $0x00000000 -> %eax 
  0x00007ffff7643791  48 0f 49 c1          cmovns %rcx %rax -> %rax 
  0x00007ffff7643795  83 bd e0 fa ff ff 00 cmp    0xfffffae0(%rbp) $0x00000000 
  0x00007ffff764379c  48 89 85 c0 fa ff ff mov    %rax -> 0xfffffac0(%rbp) 
  0x00007ffff76437a3  89 85 b0 fa ff ff    mov    %eax -> 0xfffffab0(%rbp) 
  0x00007ffff76437a9  0f 85 12 02 00 00    jnz    $0x00007ffff76439c1 

550be158
Block 430:
  0x00007ffff76437af  8b 85 f8 fa ff ff    mov    0xfffffaf8(%rbp) -> %eax 
  0x00007ffff76437b5  03 85 a8 fa ff ff    add    0xfffffaa8(%rbp) %eax -> %eax 
  0x00007ffff76437bb  2b 85 c0 fa ff ff    sub    0xfffffac0(%rbp) %eax -> %eax 
  0x00007ffff76437c1  80 bd f0 fa ff ff 00 cmp    0xfffffaf0(%rbp) $0x00 
  0x00007ffff76437c8  89 85 f8 fa ff ff    mov    %eax -> 0xfffffaf8(%rbp) 
  0x00007ffff76437ce  74 25                jz     $0x00007ffff76437f5 

550be1ac
Block 431:
  0x00007ffff76437d0  83 bd c8 fa ff ff 00 cmp    0xfffffac8(%rbp) $0x00000000 
  0x00007ffff76437d7  74 1c                jz     $0x00007ffff76437f5 

550be1e0
Block 432:
  0x00007ffff76437f5  8b 85 d0 fa ff ff    mov    0xfffffad0(%rbp) -> %eax 
  0x00007ffff76437fb  44 09 d0             or     %r10d %eax -> %eax 
  0x00007ffff76437fe  0b 85 d8 fa ff ff    or     0xfffffad8(%rbp) %eax -> %eax 
  0x00007ffff7643804  83 f8 01             cmp    %eax $0x00000001 
  0x00007ffff7643807  83 95 f8 fa ff ff ff adc    $0xffffffff 0xfffffaf8(%rbp) -> 0xfffffaf8(%rbp) 
  0x00007ffff764380e  80 bd cc fa ff ff 20 cmp    0xfffffacc(%rbp) $0x20 
  0x00007ffff7643815  0f 84 f4 05 00 00    jz     $0x00007ffff7643e0f 

550be1fc
Block 433:
  0x00007ffff7643e0f  8b 85 f8 fa ff ff    mov    0xfffffaf8(%rbp) -> %eax 
  0x00007ffff7643e15  85 c0                test   %eax %eax 
  0x00007ffff7643e17  0f 8e 85 00 00 00    jle    $0x00007ffff7643ea2 

550be231
Block 434:
  0x00007ffff7643ea2  c7 85 f8 fa ff ff 00 mov    $0x00000000 -> 0xfffffaf8(%rbp) 
                      00 00 00
  0x00007ffff7643eac  e9 6a f9 ff ff       jmp    $0x00007ffff764381b 
  0x00007ffff764381b  45 85 d2             test   %r10d %r10d 
  0x00007ffff764381e  0f 84 72 01 00 00    jz     $0x00007ffff7643996 

550be24c
Block 435:
  0x00007ffff7643996  83 bd d8 fa ff ff 00 cmp    0xfffffad8(%rbp) $0x00000000 
  0x00007ffff764399d  0f 84 ee 03 00 00    jz     $0x00007ffff7643d91 

550be26c
Block 436:
  0x00007ffff7643d91  83 bd d0 fa ff ff 00 cmp    0xfffffad0(%rbp) $0x00000000 
  0x00007ffff7643d98  0f 84 b9 fa ff ff    jz     $0x00007ffff7643857 

550be288
Block 437:
  0x00007ffff7643857  80 bd f0 fa ff ff 00 cmp    0xfffffaf0(%rbp) $0x00 
  0x00007ffff764385e  74 74                jz     $0x00007ffff76438d4 

550be2a4
Block 438:
  0x00007ffff7643860  83 bd c8 fa ff ff 00 cmp    0xfffffac8(%rbp) $0x00000000 
  0x00007ffff7643867  74 6b                jz     $0x00007ffff76438d4 

550be2c0
Block 439:
  0x00007ffff76438d4  8b 8d f8 fa ff ff    mov    0xfffffaf8(%rbp) -> %ecx 
  0x00007ffff76438da  03 8d b0 fa ff ff    add    0xfffffab0(%rbp) %ecx -> %ecx 
  0x00007ffff76438e0  85 c9                test   %ecx %ecx 
  0x00007ffff76438e2  7e 55                jle    $0x00007ffff7643939 

550be2dc
Block 440:
  0x00007ffff7643939  48 8b 8d 30 fb ff ff mov    0xfffffb30(%rbp) -> %rcx 
  0x00007ffff7643940  48 8b b5 e8 fa ff ff mov    0xfffffae8(%rbp) -> %rsi 
  0x00007ffff7643947  4c 89 ff             mov    %r15 -> %rdi 
  0x00007ffff764394a  49 8b 87 d8 00 00 00 mov    0x000000d8(%r15) -> %rax 
  0x00007ffff7643951  48 29 f1             sub    %rsi %rcx -> %rcx 
  0x00007ffff7643954  48 89 ca             mov    %rcx -> %rdx 
  0x00007ffff7643957  48 89 8d 30 fb ff ff mov    %rcx -> 0xfffffb30(%rbp) 
  0x00007ffff764395e  ff 50 38             call   0x38(%rax) %rsp -> %rsp 0xfffffff8(%rsp) 

7ffff7670340
550bb61c
550bb648
550bb673
550bd144
550bd164
550bd198
550bdbc8
550bd1d0
Block 441:
  0x00007ffff768591e  8b 0e                mov    (%rsi) -> %ecx 
  0x00007ffff7685920  89 0f                mov    %ecx -> (%rdi) 
  0x00007ffff7685922  48 83 c6 04          add    $0x0000000000000004 %rsi -> %rsi 
  0x00007ffff7685926  48 83 c7 04          add    $0x0000000000000004 %rdi -> %rdi 
  0x00007ffff768592a  f6 c2 08             test   %dl $0x08 
  0x00007ffff768592d  74 11                jz     $0x00007ffff7685940 

550be34c
550bd210
7ffff76703a0
550bd27c
7ffff7643961
Block 442:
  0x00007ffff7643961  48 8b 8d 30 fb ff ff mov    0xfffffb30(%rbp) -> %rcx 
  0x00007ffff7643968  48 39 c1             cmp    %rcx %rax 
  0x00007ffff764396b  0f 85 8c c7 ff ff    jnz    $0x00007ffff76400fd 

550be370
Block 443:
  0x00007ffff7643971  8b b5 5c fb ff ff    mov    0xfffffb5c(%rbp) -> %esi 
  0x00007ffff7643977  b8 ff ff ff 7f       mov    $0x7fffffff -> %eax 
  0x00007ffff764397c  29 f0                sub    %esi %eax -> %eax 
  0x00007ffff764397e  01 ce                add    %ecx %esi -> %esi 
  0x00007ffff7643980  48 98                cwde   %ax -> %rax 
  0x00007ffff7643982  89 b5 5c fb ff ff    mov    %esi -> 0xfffffb5c(%rbp) 
  0x00007ffff7643988  48 39 c1             cmp    %rcx %rax 
  0x00007ffff764398b  0f 8e 90 d1 ff ff    jle    $0x00007ffff7640b21 

550be390
Block 444:
  0x00007ffff7640b21  48 85 db             test   %rbx %rbx 
  0x00007ffff7640b24  0f 85 e5 00 00 00    jnz    $0x00007ffff7640c0f 

550be3c0
Block 445:
  0x00007ffff7640b2a  48 8b 85 68 fb ff ff mov    0xfffffb68(%rbp) -> %rax 
  0x00007ffff7640b31  be 25 00 00 00       mov    $0x00000025 -> %esi 
  0x00007ffff7640b36  48 8d 58 01          lea    0x01(%rax) -> %rbx 
  0x00007ffff7640b3a  48 89 df             mov    %rbx -> %rdi 
  0x00007ffff7640b3d  48 89 9d 68 fb ff ff mov    %rbx -> 0xfffffb68(%rbp) 
  0x00007ffff7640b44  e8 57 c1 04 00       call   $0x00007ffff768cca0 %rsp -> %rsp 0xfffffff8(%rsp) 
  0x00007ffff768cca0  66 0f 6e ce          data16 movd   %esi -> %xmm1 
  0x00007ffff768cca4  89 f8                mov    %edi -> %eax 
  0x00007ffff768cca6  25 ff 0f 00 00       and    $0x00000fff %eax -> %eax 
  0x00007ffff768ccab  66 0f 60 c9          data16 punpcklbw %xmm1 %xmm1 -> %xmm1 
  0x00007ffff768ccaf  3d c0 0f 00 00       cmp    %eax $0x00000fc0 
  0x00007ffff768ccb4  66 0f 61 c9          data16 punpcklwd %xmm1 %xmm1 -> %xmm1 
  0x00007ffff768ccb8  66 0f 70 c9 00       data16 pshufd %xmm1 $0x00 -> %xmm1 
  0x00007ffff768ccbd  0f 8f 4d 01 00 00    jnle   $0x00007ffff768ce10 

550be3dc
550bd914
Block 446:
  0x00007ffff768ccf0  f3 0f 6f 47 10       movdqu 0x10(%rdi) -> %xmm0 
  0x00007ffff768ccf5  66 0f 6f e0          data16 movdqa %xmm0 -> %xmm4 
  0x00007ffff768ccf9  66 0f 74 c1          data16 pcmpeqb %xmm1 %xmm0 -> %xmm0 
  0x00007ffff768ccfd  66 0f 74 e3          data16 pcmpeqb %xmm3 %xmm4 -> %xmm4 
  0x00007ffff768cd01  66 0f eb c4          data16 por    %xmm4 %xmm0 -> %xmm0 
  0x00007ffff768cd05  66 0f d7 c8          data16 pmovmskb %xmm0 -> %ecx 
  0x00007ffff768cd09  f3 0f 6f 47 20       movdqu 0x20(%rdi) -> %xmm0 
  0x00007ffff768cd0e  66 0f 6f e0          data16 movdqa %xmm0 -> %xmm4 
  0x00007ffff768cd12  66 0f 74 c1          data16 pcmpeqb %xmm1 %xmm0 -> %xmm0 
  0x00007ffff768cd16  48 c1 e1 10          shl    $0x0000000000000010 %rcx -> %rcx 
  0x00007ffff768cd1a  66 0f 74 e3          data16 pcmpeqb %xmm3 %xmm4 -> %xmm4 
  0x00007ffff768cd1e  66 0f eb c4          data16 por    %xmm4 %xmm0 -> %xmm0 
  0x00007ffff768cd22  66 0f d7 c0          data16 pmovmskb %xmm0 -> %eax 
  0x00007ffff768cd26  f3 0f 6f 47 30       movdqu 0x30(%rdi) -> %xmm0 
  0x00007ffff768cd2b  66 0f 74 d8          data16 pcmpeqb %xmm0 %xmm3 -> %xmm3 
  0x00007ffff768cd2f  48 c1 e0 20          shl    $0x0000000000000020 %rax -> %rax 
  0x00007ffff768cd33  66 0f 74 c1          data16 pcmpeqb %xmm1 %xmm0 -> %xmm0 
  0x00007ffff768cd37  48 09 c8             or     %rcx %rax -> %rax 
  0x00007ffff768cd3a  66 0f eb c3          data16 por    %xmm3 %xmm0 -> %xmm0 
  0x00007ffff768cd3e  66 0f d7 c8          data16 pmovmskb %xmm0 -> %ecx 
  0x00007ffff768cd42  48 c1 e1 30          shl    $0x0000000000000030 %rcx -> %rcx 
  0x00007ffff768cd46  48 09 c8             or     %rcx %rax -> %rax 
  0x00007ffff768cd49  48 85 c0             test   %rax %rax 
  0x00007ffff768cd4c  0f 85 ae 00 00 00    jnz    $0x00007ffff768ce00 

550be434
Block 447:
  0x00007ffff768ce00  48 0f bc c0          bsf    %rax -> %rax 
  0x00007ffff768ce04  48 8d 04 07          lea    (%rdi,%rax,1) -> %rax 
  0x00007ffff768ce08  c3                   ret    %rsp (%rsp) -> %rsp 

7ffff7640b49
Block 448:
  0x00007ffff7640b49  49 8b 8f d8 00 00 00 mov    0x000000d8(%r15) -> %rcx 
  0x00007ffff7640b50  48 89 85 68 fb ff ff mov    %rax -> 0xfffffb68(%rbp) 
  0x00007ffff7640b57  48 29 d8             sub    %rbx %rax -> %rax 
  0x00007ffff7640b5a  48 89 c2             mov    %rax -> %rdx 
  0x00007ffff7640b5d  48 89 de             mov    %rbx -> %rsi 
  0x00007ffff7640b60  4c 89 ff             mov    %r15 -> %rdi 
  0x00007ffff7640b63  ff 51 38             call   0x38(%rcx) %rsp -> %rsp 0xfffffff8(%rsp) 

7ffff7670340
550bb61c
550bb648
550bb673
550bd144
550bd164
550bd198
550bdbc8
Block 449:
  0x00007ffff7685919  f6 c2 04             test   %dl $0x04 
  0x00007ffff768591c  74 0c                jz     $0x00007ffff768592a 

550be508
550bd1f6
550bd210
550bd22c
7ffff76703a0
550bd27c
7ffff7640b66
Block 450:
  0x00007ffff7640b66  48 8b 95 68 fb ff ff mov    0xfffffb68(%rbp) -> %rdx 
  0x00007ffff7640b6d  48 89 d1             mov    %rdx -> %rcx 
  0x00007ffff7640b70  48 29 d9             sub    %rbx %rcx -> %rcx 
  0x00007ffff7640b73  31 db                xor    %ebx %ebx -> %ebx 
  0x00007ffff7640b75  48 39 c8             cmp    %rax %rcx 
  0x00007ffff7640b78  0f 85 7f f5 ff ff    jnz    $0x00007ffff76400fd 

550be527
Block 451:
  0x00007ffff7640b7e  b9 ff ff ff 7f       mov    $0x7fffffff -> %ecx 
  0x00007ffff7640b83  2b 8d 5c fb ff ff    sub    0xfffffb5c(%rbp) %ecx -> %ecx 
  0x00007ffff7640b89  48 63 c9             movsxd %ecx -> %rcx 
  0x00007ffff7640b8c  48 39 c8             cmp    %rax %rcx 
  0x00007ffff7640b8f  7f 6b                jnle   $0x00007ffff7640bfc 

550be54c
Block 452:
  0x00007ffff7640b91  01 85 5c fb ff ff    add    %eax 0xfffffb5c(%rbp) -> 0xfffffb5c(%rbp) 
  0x00007ffff7640b97  80 3a 00             cmp    (%rdx) $0x00 
  0x00007ffff7640b9a  0f 84 67 f5 ff ff    jz     $0x00007ffff7640107 

550be570
Block 453:
  0x00007ffff7640107  80 bd 53 fb ff ff 00 cmp    0xfffffb53(%rbp) $0x00 
  0x00007ffff764010e  74 0c                jz     $0x00007ffff764011c 

550be58c
Block 454:
  0x00007ffff764011c  48 8b bd 08 fb ff ff mov    0xfffffb08(%rbp) -> %rdi 
  0x00007ffff7640123  48 85 ff             test   %rdi %rdi 
  0x00007ffff7640126  74 05                jz     $0x00007ffff764012d 

550be5a8
Block 455:
  0x00007ffff764012d  48 85 db             test   %rbx %rbx 
  0x00007ffff7640130  0f 84 aa f5 ff ff    jz     $0x00007ffff763f6e0 

550be5c8
Block 456:
  0x00007ffff763f6e0  41 f7 07 00 80 00 00 test   (%r15) $0x00008000 
  0x00007ffff763f6e7  75 11                jnz    $0x00007ffff763f6fa 

550be5e4
Block 457:
  0x00007ffff763f6e9  49 8b 97 88 00 00 00 mov    0x00000088(%r15) -> %rdx 
  0x00007ffff763f6f0  83 6a 04 01          sub    $0x00000001 0x04(%rdx) -> 0x04(%rdx) 
  0x00007ffff763f6f4  0f 84 de 00 00 00    jz     $0x00007ffff763f7d8 

550be600
Block 458:
  0x00007ffff763f7d8  48 c7 42 08 00 00 00 mov    $0x00000000 -> 0x08(%rdx) 
                      00
  0x00007ffff763f7e0  83 3d 0d 45 37 00 00 cmp    <rel> 0x00007ffff79b3cf4 $0x00000000 
  0x00007ffff763f7e7  74 07                jz     $0x00007ffff763f7f0 

550be620
Block 459:
  0x00007ffff763f7f0  ff 0a                dec    (%rdx) -> (%rdx) 
  0x00007ffff763f7f2  74 16                jz     $0x00007ffff763f80a 

550be660
Block 460:
  0x00007ffff763f80a  8b 85 58 fb ff ff    mov    0xfffffb58(%rbp) -> %eax 
  0x00007ffff763f810  85 c0                test   %eax %eax 
  0x00007ffff763f812  0f 84 f0 fe ff ff    jz     $0x00007ffff763f708 

550be67c
Block 461:
  0x00007ffff763f818  48 8b 05 99 44 37 00 mov    <rel> 0x00007ffff79b3cb8 -> %rax 
  0x00007ffff763f81f  48 8d bd c0 fb ff ff lea    0xfffffbc0(%rbp) -> %rdi 
  0x00007ffff763f826  31 f6                xor    %esi %esi -> %esi 
  0x00007ffff763f828  48 c1 c8 11          ror    $0x0000000000000011 %rax -> %rax 
  0x00007ffff763f82c  64 48 33 04 25 30 00 xor    %fs:0x30 %rax -> %rax 
                      00 00
  0x00007ffff763f835  ff d0                call   %rax %rsp -> %rsp 0xfffffff8(%rsp) 

7ffff79c2ad0
Block 462:
  0x00007ffff79c2ad0  48 8b 47 18          mov    0x18(%rdi) -> %rax 
  0x00007ffff79c2ad4  64 48 89 04 25 f8 02 mov    %rax -> %fs:0x000002f8 
                      00 00
  0x00007ffff79c2add  8b 57 10             mov    0x10(%rdi) -> %edx 
  0x00007ffff79c2ae0  85 d2                test   %edx %edx 
  0x00007ffff79c2ae2  75 1c                jnz    $0x00007ffff79c2b00 

550be6fc
Block 463:
  0x00007ffff79c2ae4  85 f6                test   %esi %esi 
  0x00007ffff79c2ae6  75 08                jnz    $0x00007ffff79c2af0 

550be73c
Block 464:
  0x00007ffff79c2ae8  f3 c3                ret    %rsp (%rsp) -> %rsp 

7ffff763f837
Block 465:
  0x00007ffff763f837  e9 cc fe ff ff       jmp    $0x00007ffff763f708 
  0x00007ffff763f708  8b 85 5c fb ff ff    mov    0xfffffb5c(%rbp) -> %eax 
  0x00007ffff763f70e  48 8d 65 d8          lea    0xffffffd8(%rbp) -> %rsp 
  0x00007ffff763f712  5b                   pop    %rsp (%rsp) -> %rbx %rsp 
  0x00007ffff763f713  41 5c                pop    %rsp (%rsp) -> %r12 %rsp 
  0x00007ffff763f715  41 5d                pop    %rsp (%rsp) -> %r13 %rsp 
  0x00007ffff763f717  41 5e                pop    %rsp (%rsp) -> %r14 %rsp 
  0x00007ffff763f719  41 5f                pop    %rsp (%rsp) -> %r15 %rsp 
  0x00007ffff763f71b  5d                   pop    %rsp (%rsp) -> %rbp %rsp 
  0x00007ffff763f71c  c3                   ret    %rsp (%rsp) -> %rsp 

7ffff764a759
Block 466:
  0x00007ffff764a759  48 81 c4 d8 00 00 00 add    $0x00000000000000d8 %rsp -> %rsp 
  0x00007ffff764a760  c3                   ret    %rsp (%rsp) -> %rsp 

401ec2
Block 467:
  0x0000000000401ec2  8b 45 f4             mov    0xfffffff4(%rbp) -> %eax 
  0x0000000000401ec5  c1 e0 14             shl    $0x00000014 %eax -> %eax 
  0x0000000000401ec8  8d 90 ff 03 00 00    lea    0x000003ff(%rax) -> %edx 
  0x0000000000401ece  85 c0                test   %eax %eax 
  0x0000000000401ed0  0f 48 c2             cmovs  %edx %eax -> %eax 
  0x0000000000401ed3  c1 f8 0a             sar    $0x0000000a %eax -> %eax 
  0x0000000000401ed6  48 98                cwde   %ax -> %rax 
  0x0000000000401ed8  48 89 c7             mov    %rax -> %rdi 
  0x0000000000401edb  e8 80 ea ff ff       call   $0x0000000000400960 %rsp -> %rsp 0xfffffff8(%rsp) 
  0x0000000000400960  ff 25 1a 87 21 00    jmp    <rel> 0x0000000000619080 

7ffff767a0f0
550bc09c
550bc0c8
550bccdc
550bcd1c
550bc7f8
550bc834
550bc858
550bc894
550bc8b3
550bc8d4
Block 468:
  0x00007ffff7677612  41 83 c5 5b          add    $0x0000005b %r13d -> %r13d 
  0x00007ffff7677616  f6 43 04 01          test   0x04(%rbx) $0x01 
  0x00007ffff767761a  75 10                jnz    $0x00007ffff767762c 

550be7fc
550bc964
550bca1c
550bca38
550bca60
550bcaa4
550bcac0
550bcae8
7ffff767a15e
550bcb74
550bcb90
550bcbc8
401ee0
Block 469:
  0x0000000000401ee0  48 89 45 e0          mov    %rax -> 0xffffffe0(%rbp) 
  0x0000000000401ee4  48 83 7d e0 00       cmp    0xffffffe0(%rbp) $0x0000000000000000 
  0x0000000000401ee9  75 14                jnz    $0x0000000000401eff 

550be818
Block 470:
  0x0000000000401eff  c7 45 fc 00 00 00 00 mov    $0x00000000 -> 0xfffffffc(%rbp) 
  0x0000000000401f06  eb 2b                jmp    $0x0000000000401f33 
  0x0000000000401f33  8b 45 fc             mov    0xfffffffc(%rbp) -> %eax 
  0x0000000000401f36  69 c0 03 04 00 00    imul   %eax $0x00000403 -> %eax 
  0x0000000000401f3c  8b 55 f4             mov    0xfffffff4(%rbp) -> %edx 
  0x0000000000401f3f  c1 e2 14             shl    $0x00000014 %edx -> %edx 
  0x0000000000401f42  39 d0                cmp    %eax %edx 
  0x0000000000401f44  7c c2                jl     $0x0000000000401f08 

550be834
Block 471:
  0x0000000000401f08  8b 45 fc             mov    0xfffffffc(%rbp) -> %eax 
  0x0000000000401f0b  48 63 d0             movsxd %eax -> %rdx 
  0x0000000000401f0e  48 8b 45 e0          mov    0xffffffe0(%rbp) -> %rax 
  0x0000000000401f12  48 01 c2             add    %rax %rdx -> %rdx 
  0x0000000000401f15  48 8b 0d 34 7f 21 00 mov    <rel> 0x0000000000619e50 -> %rcx 
  0x0000000000401f1c  8b 45 fc             mov    0xfffffffc(%rbp) -> %eax 
  0x0000000000401f1f  69 c0 03 04 00 00    imul   %eax $0x00000403 -> %eax 
  0x0000000000401f25  48 98                cwde   %ax -> %rax 
  0x0000000000401f27  48 01 c8             add    %rcx %rax -> %rax 
  0x0000000000401f2a  0f b6 00             movzx  (%rax) -> %eax 
  0x0000000000401f2d  88 02                mov    %al -> (%rdx) 
  0x0000000000401f2f  83 45 fc 01          add    $0x00000001 0xfffffffc(%rbp) -> 0xfffffffc(%rbp) 
  0x0000000000401f33  8b 45 fc             mov    0xfffffffc(%rbp) -> %eax 
  0x0000000000401f36  69 c0 03 04 00 00    imul   %eax $0x00000403 -> %eax 
  0x0000000000401f3c  8b 55 f4             mov    0xfffffff4(%rbp) -> %edx 
  0x0000000000401f3f  c1 e2 14             shl    $0x00000014 %edx -> %edx 
  0x0000000000401f42  39 d0                cmp    %eax %edx 
  0x0000000000401f44  7c c2                jl     $0x0000000000401f08 

550be860
550be860
550be860
550be860
550be860
550be860
550be860
550be860
550be860
550be860
550be860
550be860
550be860
550be860
550be860
550be860
550be860
550be860
550be860
550be860
550be860
550be860
550be860
550be860
550be860
550be860
550be860
550be860
550be860
550be860
550be860
550be860
550be860
550be860
550be860
550be860
550be860
550be860
550be860
550be860
550be860
550be860
550be860
550be860
550be860
550be860
550be860
550be860
550be860
550be860
550be860
550be860
550be860
550be860
550be860
550be860
550be860
550be860
550be860
550be860
550be860
550be860
550be860
550be860
550be860
550be860
550be860
550be860
550be860
550be860
550be860
550be860
550be860
550be860
550be860
550be860
550be860
550be860
550be860
550be860
550be860
550be860
550be860
550be860
550be860
550be860
550be860
550be860
550be860
550be860
550be860
550be860
550be860
550be860
550be860
550be860
550be860
550be860
550be860
550be860
550be860
550be860
550be860
550be860
550be860
550be860
550be860
550be860
550be860
550be860
550be860
550be860
550be860
550be860
550be860
550be860
550be860
550be860
550be860
550be860
550be860
550be860
550be860
550be860
550be860
550be860
550be860
550be860
550be860
550be860
550be860
550be860
550be860
550be860
550be860
550be860
550be860
550be860
550be860
550be860
550be860
550be860
550be860
550be860
550be860
550be860
550be860
550be860
550be860
550be860
550be860
550be860
550be860
550be860
550be860
550be860
550be860
550be860
550be860
550be860
550be860
550be860
550be860
550be860
550be860
550be860
550be860
550be860
550be860
550be860
550be860
550be860
550be860
550be860
550be860
550be860
550be860
550be860
550be860
550be860
550be860
550be860
550be860
550be860
550be860
550be860
550be860
550be860
550be860
550be860
550be860
550be860
550be860
550be860
550be860
550be860
550be860
550be860
550be860
550be860
550be860
550be860
550be860
550be860
550be860
550be860
550be860
550be860
550be860
550be860
550be860
550be860
550be860
550be860
550be860
550be860
550be860
550be860
550be860
550be860
550be860
550be860
550be860
550be860
550be860
550be860
550be860
550be860
550be860
550be860
550be860
550be860
550be860
550be860
550be860
550be860
550be860
550be860
550be860
550be860
550be860
550be860
550be860
550be860
550be860
550be860
550be860
550be860
550be860
550be860
550be860
550be860
550be860
550be860
550be860
550be860
550be860
550be860
550be860
550be860
550be860
550be860
550be860
550be860
550be860
550be860
550be860
550be860
550be860
550be860
550be860
550be860
550be860
550be860
550be860
550be860
550be860
550be860
550be860
550be860
550be860
550be860
550be860
550be860
550be860
550be860
550be860
550be860
550be860
550be860
550be860
550be860
550be860
550be860
550be860
550be860
550be860
550be860
550be860
550be860
550be860
550be860
550be860
550be860
550be860
550be860
550be860
550be860
550be860
550be860
550be860
550be860
550be860
550be860
550be860
550be860
550be860
550be860
550be860
550be860
550be860
550be860
550be860
550be860
550be860
550be860
550be860
550be860
550be860
550be860
550be860
550be860
550be860
550be860
550be860
550be860
550be860
550be860
550be860
550be860
550be860
550be860
550be860
550be860
550be860
550be860
550be860
550be860
550be860
550be860
550be860
550be860
550be860
550be860
550be860
550be860
550be860
550be860
550be860
550be860
550be860
550be860
550be860
550be860
550be860
550be860
550be860
550be860
550be860
550be860
550be860
550be860
550be860
550be860
550be860
550be860
550be860
550be860
550be860
550be860
550be860
550be860
550be860
550be860
550be860
550be860
550be860
550be860
550be860
550be860
550be860
550be860
550be860
550be860
550be860
550be860
550be860
550be860
550be860
550be860
550be860
550be860
550be860
550be860
550be860
550be860
550be860
550be860
550be860
550be860
550be860
550be860
550be860
550be860
550be860
550be860
550be860
550be860
550be860
550be860
550be860
550be860
550be860
550be860
550be860
550be860
550be860
550be860
550be860
550be860
550be860
550be860
550be860
550be860
550be860
550be860
550be860
550be860
550be860
550be860
550be860
550be860
550be860
550be860
550be860
550be860
550be860
550be860
550be860
550be860
550be860
550be860
550be860
550be860
550be860
550be860
550be860
550be860
550be860
550be860
550be860
550be860
550be860
550be860
550be860
550be860
550be860
550be860
550be860
550be860
550be860
550be860
550be860
550be860
550be860
550be860
550be860
550be860
550be860
550be860
550be860
550be860
550be860
550be860
550be860
550be860
550be860
550be860
550be860
550be860
550be860
550be860
550be860
550be860
550be860
550be860
550be860
550be860
550be860
550be860
550be860
550be860
550be860
550be860
550be860
550be860
550be860
550be860
550be860
550be860
550be860
550be860
550be860
550be860
550be860
550be860
550be860
550be860
550be860
550be860
550be860
550be860
550be860
550be860
550be860
550be860
550be860
550be860
550be860
550be860
550be860
550be860
550be860
550be860
550be860
550be860
550be860
550be860
550be860
550be860
550be860
550be860
550be860
550be860
550be860
550be860
550be860
550be860
550be860
550be860
550be860
550be860
550be860
550be860
550be860
550be860
550be860
550be860
550be860
550be860
550be860
550be860
550be860
550be860
550be860
550be860
550be860
550be860
550be860
550be860
550be860
550be860
550be860
550be860
550be860
550be860
550be860
550be860
550be860
550be860
550be860
550be860
550be860
550be860
550be860
550be860
550be860
550be860
550be860
550be860
550be860
550be860
550be860
550be860
550be860
550be860
550be860
550be860
550be860
550be860
550be860
550be860
550be860
550be860
550be860
550be860
550be860
550be860
550be860
550be860
550be860
550be860
550be860
550be860
550be860
550be860
550be860
550be860
550be860
550be860
550be860
550be860
550be860
550be860
550be860
550be860
550be860
550be860
550be860
550be860
550be860
550be860
550be860
550be860
550be860
550be860
550be860
550be860
550be860
550be860
550be860
550be860
550be860
550be860
550be860
550be860
550be860
550be860
550be860
550be860
550be860
550be860
550be860
550be860
550be860
550be860
550be860
550be860
550be860
550be860
550be860
550be860
550be860
550be860
550be860
550be860
550be860
550be860
550be860
550be860
550be860
550be860
550be860
550be860
550be860
550be860
550be860
550be860
550be860
550be860
550be860
550be860
550be860
550be860
550be860
550be860
550be860
550be860
550be860
550be860
550be860
550be860
550be860
550be860
550be860
550be860
550be860
550be860
550be860
550be860
550be860
550be860
550be860
550be860
550be860
550be860
550be860
550be860
550be860
550be860
550be860
550be860
550be860
550be860
550be860
550be860
550be860
550be860
550be860
550be860
550be860
550be860
550be860
550be860
550be860
550be860
550be860
550be860
550be860
550be860
550be860
550be860
550be860
550be860
550be860
550be860
550be860
550be860
550be860
550be860
550be860
550be860
550be860
550be860
550be860
550be860
550be860
550be860
550be860
550be860
550be860
550be860
550be860
550be860
550be860
550be860
550be860
550be860
550be860
550be860
550be860
550be860
550be860
550be860
550be860
550be860
550be860
550be860
550be860
550be860
550be860
550be860
550be860
550be860
550be860
550be860
550be860
550be860
550be860
550be860
550be860
550be860
550be860
550be860
550be860
550be860
550be860
550be860
550be860
550be860
550be860
550be860
550be860
550be860
550be860
550be860
550be860
550be860
550be860
550be860
550be860
550be860
550be860
550be860
550be860
550be860
550be860
550be860
550be860
550be860
550be860
550be860
550be860
550be860
550be860
550be860
550be860
550be860
550be860
550be860
550be860
550be860
550be860
550be860
550be860
550be860
550be860
550be860
550be860
550be860
550be860
550be860
550be860
550be860
550be860
550be860
550be860
550be860
550be860
550be860
550be860
550be860
550be860
550be860
550be860
550be860
550be860
550be860
550be860
550be860
550be860
550be860
550be860
550be860
550be860
550be860
550be860
550be860
550be860
550be860
550be860
550be860
550be860
550be860
550be860
550be860
550be860
550be860
550be860
550be860
550be860
550be860
550be860
550be860
550be860
550be860
550be860
550be860
550be860
550be860
550be860
550be860
550be860
550be860
550be860
550be860
550be860
550be860
550be860
550be860
550be860
550be860
550be860
550be860
550be860
550be860
550be860
550be860
550be860
550be860
550be860
550be860
550be860
550be860
550be860
550be860
550be860
550be860
550be860
550be860
550be860
550be860
550be860
550be860
550be860
550be860
550be860
550be860
550be860
550be860
550be860
550be860
550be860
550be860
550be860
550be860
550be860
550be860
550be860
550be860
550be860
550be860
550be860
550be860
550be860
550be860
550be860
550be860
550be860
550be860
550be860
550be860
550be860
550be860
550be860
550be860
550be860
550be860
550be860
550be860
550be860
550be860
550be860
550be860
550be860
550be860
550be860
550be860
550be860
550be860
550be860
550be860
550be860
550be860
550be860
550be860
550be860
550be860
550be860
550be860
550be860
550be860
550be860
550be860
550be860
550be860
550be860
550be860
550be860
550be860
550be860
550be860
550be860
550be860
550be860
550be860
550be860
550be860
550be860
550be860
550be860
550be860
550be860
550be860
550be860
550be860
550be860
550be860
550be860
550be860
550be860
550be860
550be860
550be860
550be860
550be860
550be860
550be860
550be860
550be860
550be860
550be860
550be860
550be860
550be860
550be860
550be860
550be860
550be860
550be860
550be860
550be860
550be860
550be860
550be860
550be860
550be860
550be860
550be860
550be860
550be860
550be860
550be860
550be860
550be860
550be860
550be860
550be860
550be860
550be860
550be860
550be860
550be860
550be860
550be860
550be860
550be860
550be860
550be860
550be860
550be860
550be860
550be860
550be860
550be860
550be860
550be860
550be860
550be860
550be860
550be860
550be860
550be860
550be860
550be860
550be860
550be860
550be860
550be860
550be860
550be860
550be860
550be860
550be860
550be860
550be860
550be860
550be860
550be860
550be860
550be860
550be860
550be860
550be860
550be860
550be860
550be860
550be860
550be860
550be860
550be860
550be860
550be860
550be860
550be860
550be860
550be860
550be860
550be860
550be860
550be860
550be860
550be860
550be860
550be860
550be860
550be860
550be860
550be860
550be860
550be860
550be860
550be860
550be860
550be860
550be860
550be860
550be860
550be860
550be860
550be860
550be860
550be860
550be860
550be860
550be860
550be860
550be860
550be860
550be860
550be860
550be860
550be860
550be860
550be860
550be860
550be860
550be860
550be860
550be860
550be860
550be860
550be860
550be860
550be860
550be860
550be860
550be860
550be860
550be860
550be860
550be860
550be860
550be860
550be860
550be860
550be860
550be860
550be860
550be860
550be860
550be860
550be860
550be860
550be860
550be860
550be860
550be860
550be860
550be860
550be860
550be860
550be860
550be860
550be860
550be860
550be860
550be860
550be860
550be860
550be860
550be860
550be860
550be860
550be860
550be860
550be860
550be860
550be860
550be860
550be860
550be860
550be860
550be860
550be860
550be860
550be860
550be860
550be860
550be860
550be860
550be860
550be860
550be860
550be860
550be860
550be860
550be860
550be860
550be860
550be860
550be860
550be860
550be860
550be860
550be860
550be860
550be860
550be860
550be860
550be860
550be860
550be860
550be860
550be860
550be860
550be860
550be860
550be860
550be860
550be860
550be860
550be860
550be860
550be860
550be860
550be860
550be860
550be860
550be860
550be860
550be860
550be860
550be860
550be860
550be860
550be860
550be860
550be860
550be860
550be860
550be860
550be860
550be860
550be860
550be860
550be860
550be860
550be860
550be860
550be860
550be860
550be860
550be860
550be860
550be860
550be860
550be860
550be860
550be860
550be860
550be860
550be860
550be860
550be860
550be860
550be860
550be860
550be860
550be860
550be860
550be860
550be860
550be860
550be860
550be860
550be860
550be860
550be860
550be860
550be860
550be860
550be860
550be860
550be860
550be860
550be860
550be860
550be860
550be860
550be860
550be860
550be860
550be860
550be860
550be860
550be860
550be860
550be860
550be860
550be860
550be860
550be860
550be860
550be860
550be860
550be860
550be860
550be860
550be860
550be860
550be860
550be860
550be860
550be860
550be860
550be860
550be860
550be860
550be860
550be860
550be860
550be860
550be860
550be860
550be860
550be860
550be860
550be860
550be860
550be860
550be860
550be860
550be860
550be860
550be860
550be860
550be860
550be860
550be860
550be860
550be860
550be860
550be860
550be860
550be860
550be860
550be860
550be860
550be860
550be860
550be860
550be860
550be860
550be860
550be860
550be860
550be860
550be860
550be860
550be860
550be860
550be860
550be860
550be860
550be860
550be860
550be860
550be860
550be860
550be860
550be860
550be860
550be860
550be860
550be860
550be860
550be860
550be860
550be860
550be860
550be860
550be860
550be860
550be860
550be860
550be860
550be860
550be860
550be860
550be860
550be860
550be860
550be860
550be860
550be860
550be860
550be860
550be860
550be860
550be860
550be860
550be860
550be860
550be860
550be860
550be860
550be860
550be860
550be860
550be860
550be860
550be860
550be860
550be860
550be860
550be860
550be860
550be860
550be860
550be860
550be860
550be860
550be860
550be860
550be860
550be860
550be860
550be860
550be860
550be860
550be860
550be860
550be860
550be860
550be860
550be860
550be860
550be860
550be860
550be860
550be860
550be860
550be860
550be860
550be860
550be860
550be860
550be860
550be860
550be860
550be860
550be860
550be860
550be860
550be860
550be860
550be860
550be860
550be860
550be860
550be860
550be860
550be860
550be860
550be860
550be860
550be860
550be860
550be860
550be860
550be860
550be860
550be860
550be860
550be860
550be860
550be860
550be860
550be860
550be860
550be860
550be860
550be860
550be860
550be860
550be860
550be860
550be860
550be860
550be860
550be860
550be860
550be860
550be860
550be860
550be860
550be860
550be860
550be860
550be860
550be860
550be860
550be860
550be860
550be860
550be860
550be860
550be860
550be860
550be860
550be860
550be860
550be860
550be860
550be860
550be860
550be860
550be860
550be860
550be860
550be860
550be860
550be860
550be860
550be860
550be860
550be860
550be860
550be860
550be860
550be860
550be860
550be860
550be860
550be860
550be860
550be860
550be860
550be860
550be860
550be860
550be860
550be860
550be860
550be860
550be860
550be860
550be860
550be860
550be860
550be860
550be860
550be860
550be860
550be860
550be860
550be860
550be860
550be860
550be860
550be860
550be860
550be860
550be860
550be860
550be860
550be860
550be860
550be860
550be860
550be860
550be860
550be860
550be860
550be860
550be860
550be860
550be860
550be860
550be860
550be860
550be860
550be860
550be860
550be860
550be860
550be860
550be860
550be860
550be860
550be860
550be860
550be860
550be860
550be860
550be860
550be860
550be860
550be860
550be860
550be860
550be860
550be860
550be860
550be860
550be860
550be860
550be860
550be860
550be860
550be860
550be860
550be860
550be860
550be860
550be860
550be860
550be860
550be860
550be860
550be860
550be860
550be860
550be860
550be860
550be860
550be860
550be860
550be860
550be860
550be860
550be860
550be860
550be860
550be860
550be860
550be860
550be860
550be860
550be860
550be860
550be860
550be860
550be860
550be860
550be860
550be860
550be860
550be860
550be860
550be860
550be860
550be860
550be860
550be860
550be860
550be860
550be860
550be860
550be860
550be860
550be860
550be860
550be860
550be860
550be860
550be860
550be860
550be860
550be860
550be860
550be860
550be860
550be860
550be860
550be860
550be860
550be860
550be860
550be860
550be860
550be860
550be860
550be860
550be860
550be860
550be860
550be860
550be860
550be860
550be860
550be860
550be860
550be860
550be860
550be860
550be860
550be860
550be860
550be860
550be860
550be860
550be860
550be860
550be860
550be860
550be860
550be860
550be860
550be860
550be860
550be860
550be860
550be860
550be860
550be860
550be860
550be860
550be860
550be860
550be860
550be860
550be860
550be860
550be860
550be860
550be860
550be860
550be860
550be860
550be860
550be860
550be860
550be860
550be860
550be860
550be860
550be860
550be860
550be860
550be860
550be860
550be860
550be860
550be860
550be860
550be860
550be860
550be860
550be860
550be860
550be860
550be860
550be860
550be860
550be860
550be860
550be860
550be860
550be860
550be860
550be860
550be860
550be860
550be860
550be860
550be860
550be860
550be860
550be860
550be860
550be860
550be860
550be860
550be860
550be860
550be860
550be860
550be860
550be860
550be860
550be860
550be860
550be860
550be860
550be860
550be860
550be860
550be860
550be860
550be860
550be860
550be860
550be860
550be860
550be860
550be860
550be860
550be860
550be860
550be860
550be860
550be860
550be860
550be860
550be860
550be860
550be860
550be860
550be860
550be860
550be860
550be860
550be860
550be860
550be860
550be860
550be860
550be860
550be860
550be860
550be860
550be860
550be860
550be860
550be860
550be860
550be860
550be860
550be860
550be860
550be860
550be860
550be860
550be860
550be860
550be860
550be860
550be860
550be860
550be860
550be860
550be860
550be860
550be860
550be860
550be860
550be860
550be860
550be860
550be860
550be860
550be860
550be860
550be860
550be860
550be860
550be860
550be860
550be860
550be860
550be860
550be860
550be860
550be860
550be860
550be860
550be860
550be860
550be860
550be860
550be860
550be860
550be860
550be860
550be860
550be860
550be860
550be860
550be860
550be860
550be860
550be860
550be860
550be860
550be860
550be860
550be860
550be860
550be860
550be860
550be860
550be860
550be860
550be860
550be860
550be860
550be860
550be860
550be860
550be860
550be860
550be860
550be860
550be860
550be860
550be860
550be860
550be860
550be860
550be860
550be860
550be860
550be860
550be860
550be860
550be860
550be860
550be860
550be860
550be860
550be860
550be860
550be860
550be860
550be860
550be860
550be860
550be860
550be860
550be860
550be860
550be860
550be860
550be860
550be860
550be860
550be860
550be860
550be860
550be860
550be860
550be860
550be860
550be860
550be860
550be860
550be860
550be860
550be860
550be860
550be860
550be860
550be860
550be860
550be860
550be860
550be860
550be860
550be860
550be860
550be860
550be860
550be860
550be860
550be860
550be860
550be860
550be860
550be860
550be860
550be860
550be860
550be860
550be860
550be860
550be860
550be860
550be860
550be860
550be860
550be860
550be860
550be860
550be860
550be860
550be860
550be860
550be860
550be860
550be860
550be860
550be860
550be860
550be860
550be860
550be860
550be860
550be860
550be860
550be860
550be860
550be860
550be860
550be860
550be860
550be860
550be860
550be860
550be860
550be860
550be860
550be860
550be860
550be860
550be860
550be860
550be860
550be860
550be860
550be860
550be860
550be860
550be860
550be860
550be860
550be860
550be860
550be860
550be860
550be860
550be860
550be860
550be860
550be860
550be860
550be860
550be860
550be860
550be860
550be860
550be860
550be860
550be860
550be860
550be860
550be860
550be860
550be860
550be860
550be860
550be860
550be860
550be860
550be860
550be860
550be860
550be860
550be860
550be860
550be860
550be860
550be860
550be860
550be860
550be860
550be860
550be860
550be860
550be860
550be860
550be860
550be860
550be860
550be860
550be860
550be860
550be860
550be860
550be860
550be860
550be860
550be860
550be860
550be860
550be860
550be860
550be860
550be860
550be860
550be860
550be860
550be860
550be860
550be860
550be860
550be860
550be860
550be860
550be860
550be860
550be860
550be860
550be860
550be860
550be860
550be860
550be860
550be860
550be860
550be860
550be860
550be860
550be860
550be860
550be860
550be860
550be860
550be860
550be860
550be860
550be860
550be860
550be860
550be860
550be860
550be860
550be860
550be860
550be860
550be860
550be860
550be860
550be860
550be860
550be860
550be860
550be860
550be860
550be860
550be860
550be860
550be860
550be860
550be860
550be860
550be860
550be860
550be860
550be860
550be860
550be860
550be860
550be860
550be860
550be860
550be860
550be860
550be860
550be860
550be860
550be860
550be860
550be860
550be860
550be860
550be860
550be860
550be860
550be860
550be860
550be860
550be860
550be860
550be860
550be860
550be860
550be860
550be860
550be860
550be860
550be860
550be860
550be860
550be860
550be860
550be860
550be860
550be860
550be860
550be860
550be860
550be860
550be860
550be860
550be860
550be860
550be860
550be860
550be860
550be860
550be860
550be860
550be860
550be860
550be860
550be860
550be860
550be860
550be860
550be860
550be860
550be860
550be860
550be860
550be860
550be860
550be860
550be860
550be860
550be860
550be860
550be860
550be860
550be860
550be860
550be860
550be860
550be860
550be860
550be860
550be860
550be860
550be860
550be860
550be860
550be860
550be860
550be860
550be860
550be860
550be860
550be860
550be860
550be860
550be860
550be860
550be860
550be860
550be860
550be860
550be860
550be860
550be860
550be860
550be860
550be860
550be860
550be860
550be860
550be860
550be860
550be860
550be860
550be860
550be860
550be860
550be860
550be860
550be860
550be860
550be860
550be860
550be860
550be860
550be860
550be860
550be860
550be860
550be860
550be860
550be860
550be860
550be860
550be860
550be860
550be860
550be860
550be860
550be860
550be860
550be860
550be860
550be860
550be860
550be860
550be860
550be860
550be860
550be860
550be860
550be860
550be860
550be860
550be860
550be860
550be860
550be860
550be860
550be860
550be860
550be860
550be860
550be860
550be860
550be860
550be860
550be860
550be860
550be860
550be860
550be860
550be860
550be860
550be860
550be860
550be860
550be860
550be860
550be860
550be860
550be860
550be860
550be860
550be860
550be860
550be860
550be860
550be860
550be860
550be860
550be860
550be860
550be860
550be860
550be860
550be860
550be860
550be860
550be860
550be860
550be860
550be860
550be860
550be860
550be860
550be860
550be860
550be860
550be860
550be860
550be860
550be860
550be860
550be860
550be860
550be860
550be860
550be860
550be860
550be860
550be860
550be860
550be860
550be860
550be860
550be860
550be860
550be860
550be860
550be860
550be860
550be860
550be860
550be860
550be860
550be860
550be860
550be860
550be860
550be860
550be860
550be860
550be860
550be860
550be860
550be860
550be860
550be860
550be860
550be860
550be860
550be860
550be860
550be860
550be860
550be860
550be860
550be860
550be860
550be860
550be860
550be860
550be860
550be860
550be860
550be860
550be860
550be860
550be860
550be860
550be860
550be860
550be860
550be860
550be860
550be860
550be860
550be860
550be860
550be860
550be860
550be860
550be860
550be860
550be860
550be860
550be860
550be860
550be860
550be860
550be860
550be860
550be860
550be860
550be860
550be860
550be860
550be860
550be860
550be860
550be860
550be860
550be860
550be860
550be860
550be860
550be860
550be860
550be860
550be860
550be860
550be860
550be860
550be860
550be860
550be860
550be860
550be860
550be860
550be860
550be860
550be860
550be860
550be860
550be860
550be860
550be860
550be860
550be860
550be860
550be860
550be860
550be860
550be860
550be860
550be860
550be860
550be860
550be860
550be860
550be860
550be860
550be860
550be860
550be860
550be860
550be860
550be860
550be860
550be860
550be860
550be860
550be860
550be860
550be860
550be860
550be860
550be860
550be860
550be860
550be860
550be860
550be860
550be860
550be860
550be860
550be860
550be860
550be860
550be860
550be860
550be860
550be860
550be860
550be860
550be860
550be860
550be860
550be860
550be860
550be860
550be860
550be860
550be860
550be860
550be860
550be860
550be860
550be860
550be860
550be860
550be860
550be860
550be860
550be860
550be860
550be860
550be860
550be860
550be860
550be860
550be860
550be860
550be860
550be860
550be860
550be860
550be860
550be860
550be860
550be860
550be860
550be860
550be860
550be860
550be860
550be860
550be860
550be860
550be860
550be860
550be860
550be860
550be860
550be860
550be860
550be860
550be860
550be860
550be860
550be860
550be860
550be860
550be860
550be860
550be860
550be860
550be860
550be860
550be860
550be860
550be860
550be860
550be860
550be860
550be860
550be860
550be860
550be860
550be860
550be860
550be860
550be860
550be860
550be860
550be860
550be860
550be860
550be860
550be860
550be860
550be860
550be860
550be860
550be860
550be860
550be860
550be860
550be860
550be860
550be860
550be860
550be860
550be860
550be860
550be860
550be860
550be860
550be860
550be860
550be860
550be860
550be860
550be860
550be860
550be860
550be860
550be860
550be860
550be860
550be860
550be860
550be860
550be860
550be860
550be860
550be860
550be860
550be860
550be860
550be860
550be860
550be860
550be860
550be860
550be860
550be860
550be860
550be860
550be860
550be860
550be860
550be860
550be860
550be860
550be860
550be860
550be860
550be860
550be860
550be860
550be860
550be860
550be860
550be860
550be860
550be860
550be860
550be860
550be860
550be860
550be860
550be860
550be860
550be860
550be860
550be860
550be860
550be860
550be860
550be860
550be860
550be860
550be860
550be860
550be860
550be860
550be860
550be860
550be860
550be860
550be860
550be860
550be860
550be860
550be860
550be860
550be860
550be860
550be860
550be860
550be860
550be860
550be860
550be860
550be860
550be860
550be860
550be860
550be860
550be860
550be860
550be860
550be860
550be860
550be860
550be860
550be860
550be860
550be860
550be860
550be860
550be860
550be860
550be860
550be860
550be860
550be860
550be860
550be860
550be860
550be860
550be860
550be860
550be860
550be860
550be860
550be860
550be860
550be860
550be860
550be860
550be860
550be860
550be860
550be860
550be860
550be860
550be860
550be860
550be860
550be860
550be860
550be860
550be860
550be860
550be860
550be860
550be860
550be860
550be860
550be860
550be860
550be860
550be860
550be860
550be860
550be860
